   1              		.cpu cortex-m7
   2              		.arch armv7e-m
   3              		.fpu fpv5-d16
   4              		.eabi_attribute 28, 1
   5              		.eabi_attribute 20, 1
   6              		.eabi_attribute 21, 1
   7              		.eabi_attribute 23, 3
   8              		.eabi_attribute 24, 1
   9              		.eabi_attribute 25, 1
  10              		.eabi_attribute 26, 1
  11              		.eabi_attribute 30, 6
  12              		.eabi_attribute 34, 1
  13              		.eabi_attribute 18, 4
  14              		.file	"pid.c"
  15              		.text
  16              	.Ltext0:
  17              		.cfi_sections	.debug_frame
  18              		.section	.text.pid_init,"ax",%progbits
  19              		.align	1
  20              		.p2align 4,,15
  21              		.global	pid_init
  22              		.syntax unified
  23              		.thumb
  24              		.thumb_func
  26              	pid_init:
  27              	.LFB482:
  28              		.file 1 "user_code/pid.c"
   1:user_code/pid.c **** /*
   2:user_code/pid.c ****  * pid.c
   3:user_code/pid.c ****  *
   4:user_code/pid.c ****  *  Created on: 2025е№ҙ6жңҲ18ж—Ҙ
   5:user_code/pid.c ****  *      Author: еҲҳзҸҲзҗӘ
   6:user_code/pid.c ****  */
   7:user_code/pid.c **** 
   8:user_code/pid.c **** 
   9:user_code/pid.c **** #include "pid.h"
  10:user_code/pid.c **** 
  11:user_code/pid.c **** //-------------------------------------------------------------------------------------------------
  12:user_code/pid.c **** // еҮҪж•°з®Җд»Ӣ     PIDеҲқе§ӢеҢ–
  13:user_code/pid.c **** // еҸӮж•°иҜҙжҳҺ     *pid                PIDз»“жһ„дҪ“
  14:user_code/pid.c **** // иҝ”еӣһеҸӮж•°     void
  15:user_code/pid.c **** // дҪҝз”ЁзӨәдҫӢ
  16:user_code/pid.c **** // еӨҮжіЁдҝЎжҒҜ
  17:user_code/pid.c **** //-------------------------------------------------------------------------------------------------
  18:user_code/pid.c **** void pid_init(pid_controller *pid)
  19:user_code/pid.c **** {
  29              		.loc 1 19 1
  30              		.cfi_startproc
  31              		@ args = 0, pretend = 0, frame = 8
  32              		@ frame_needed = 0, uses_anonymous_args = 0
  33 0000 00B5     		push	{lr}
  34              		.cfi_def_cfa_offset 4
  35              		.cfi_offset 14, -4
  36 0002 83B0     		sub	sp, sp, #12
  37              		.cfi_def_cfa_offset 16
  38 0004 0190     		str	r0, [sp, #4]
  20:user_code/pid.c ****     pid->Kp = 3.0f;             // и®ҫзҪ®PIDжҺ§еҲ¶еҷЁзҡ„жҜ”дҫӢзі»ж•°дёә2.0пјҲеҚ•зІҫеәҰжө®зӮ№ж•°пјү
  39              		.loc 1 20 13
  40 0006 019B     		ldr	r3, [sp, #4]
  41 0008 094A     		ldr	r2, .L2
  42 000a 1A60     		str	r2, [r3]	@ float
  21:user_code/pid.c ****     pid->Ki = 0.01f;            // и®ҫзҪ®PIDжҺ§еҲ¶еҷЁзҡ„з§ҜеҲҶзі»ж•°дёә0.01пјҲеҚ•зІҫеәҰжө®зӮ№ж•°пјү
  43              		.loc 1 21 13
  44 000c 019B     		ldr	r3, [sp, #4]
  45 000e 094A     		ldr	r2, .L2+4
  46 0010 5A60     		str	r2, [r3, #4]	@ float
  22:user_code/pid.c ****     pid->Kd = 3.0f;             // и®ҫзҪ®PIDжҺ§еҲ¶еҷЁзҡ„еҫ®еҲҶзі»ж•°дёә0.5пјҲеҚ•зІҫеәҰжө®зӮ№ж•°пјүп
  47              		.loc 1 22 13
  48 0012 019B     		ldr	r3, [sp, #4]
  49 0014 064A     		ldr	r2, .L2
  50 0016 9A60     		str	r2, [r3, #8]	@ float
  23:user_code/pid.c ****     pid->setpoint = 0.0f;       // и®ҫзҪ®PIDжҺ§еҲ¶еҷЁзҡ„зӣ®ж Үи®ҫе®ҡеҖјдёә0.0пјҲеҚ•зІҫеәҰжө®зӮ№ж•°п
  51              		.loc 1 23 19
  52 0018 019B     		ldr	r3, [sp, #4]
  53 001a 4FF00002 		mov	r2, #0
  54 001e DA60     		str	r2, [r3, #12]	@ float
  24:user_code/pid.c ****     pid_reset(pid);             // и°ғз”ЁеӨҚдҪҚеҮҪж•°еҜ№PIDжҺ§еҲ¶еҷЁеҶ…йғЁзҠ¶жҖҒиҝӣиЎҢжё…йӣ¶пјҢдёәж
  55              		.loc 1 24 5
  56 0020 0198     		ldr	r0, [sp, #4]
  57 0022 FFF7FEFF 		bl	pid_reset
  25:user_code/pid.c **** }
  58              		.loc 1 25 1
  59 0026 00BF     		nop
  60 0028 03B0     		add	sp, sp, #12
  61              		.cfi_def_cfa_offset 4
  62              		@ sp needed
  63 002a 5DF804FB 		ldr	pc, [sp], #4
  64              	.L3:
  65 002e 00BF     		.align	2
  66              	.L2:
  67 0030 00004040 		.word	1077936128
  68 0034 0AD7233C 		.word	1008981770
  69              		.cfi_endproc
  70              	.LFE482:
  72              		.section	.text.pid_set_limits,"ax",%progbits
  73              		.align	1
  74              		.p2align 4,,15
  75              		.global	pid_set_limits
  76              		.syntax unified
  77              		.thumb
  78              		.thumb_func
  80              	pid_set_limits:
  81              	.LFB483:
  26:user_code/pid.c **** 
  27:user_code/pid.c **** //-------------------------------------------------------------------------------------------------
  28:user_code/pid.c **** // еҮҪж•°з®Җд»Ӣ     PIDи®ҫзҪ®иҫ“еҮәйҷҗеҲ¶
  29:user_code/pid.c **** // еҸӮж•°иҜҙжҳҺ     *pid                PIDз»“жһ„дҪ“
  30:user_code/pid.c **** // еҸӮж•°иҜҙжҳҺ     min                 и®ҫзҪ®иҫ“еҮәжңҖе°ҸеҖј
  31:user_code/pid.c **** // еҸӮж•°иҜҙжҳҺ     max                 и®ҫзҪ®иҫ“еҮәжңҖеӨ§еҖј
  32:user_code/pid.c **** // иҝ”еӣһеҸӮж•°     void
  33:user_code/pid.c **** // дҪҝз”ЁзӨәдҫӢ
  34:user_code/pid.c **** // еӨҮжіЁдҝЎжҒҜ
  35:user_code/pid.c **** //-------------------------------------------------------------------------------------------------
  36:user_code/pid.c **** void pid_set_limits(pid_controller *pid, float min, float max)
  37:user_code/pid.c **** {
  82              		.loc 1 37 1
  83              		.cfi_startproc
  84              		@ args = 0, pretend = 0, frame = 16
  85              		@ frame_needed = 0, uses_anonymous_args = 0
  86              		@ link register save eliminated.
  87 0000 84B0     		sub	sp, sp, #16
  88              		.cfi_def_cfa_offset 16
  89 0002 0390     		str	r0, [sp, #12]
  90 0004 8DED020A 		vstr.32	s0, [sp, #8]
  91 0008 CDED010A 		vstr.32	s1, [sp, #4]
  38:user_code/pid.c ****     pid->out_min = min;
  92              		.loc 1 38 18
  93 000c 039B     		ldr	r3, [sp, #12]
  94 000e 029A     		ldr	r2, [sp, #8]	@ float
  95 0010 DA61     		str	r2, [r3, #28]	@ float
  39:user_code/pid.c ****     pid->out_max = max;
  96              		.loc 1 39 18
  97 0012 039B     		ldr	r3, [sp, #12]
  98 0014 019A     		ldr	r2, [sp, #4]	@ float
  99 0016 1A62     		str	r2, [r3, #32]	@ float
  40:user_code/pid.c **** }
 100              		.loc 1 40 1
 101 0018 00BF     		nop
 102 001a 04B0     		add	sp, sp, #16
 103              		.cfi_def_cfa_offset 0
 104              		@ sp needed
 105 001c 7047     		bx	lr
 106              		.cfi_endproc
 107              	.LFE483:
 109 001e 00BF     		.section	.text.pid_compute,"ax",%progbits
 110              		.align	1
 111              		.p2align 4,,15
 112              		.global	pid_compute
 113              		.syntax unified
 114              		.thumb
 115              		.thumb_func
 117              	pid_compute:
 118              	.LFB484:
  41:user_code/pid.c **** 
  42:user_code/pid.c **** //-------------------------------------------------------------------------------------------------
  43:user_code/pid.c **** // еҮҪж•°з®Җд»Ӣ     и®Ўз®—PIDиҫ“еҮә
  44:user_code/pid.c **** // еҸӮж•°иҜҙжҳҺ     *pid                PIDжҺ§еҲ¶еҷЁ
  45:user_code/pid.c **** // еҸӮж•°иҜҙжҳҺ     input               и®ҫзҪ®иҫ“еҮә
  46:user_code/pid.c **** // иҝ”еӣһеҸӮж•°     float
  47:user_code/pid.c **** // дҪҝз”ЁзӨәдҫӢ     pid_output = pid_compute(&heading_pid, current_angles.yaw);
  48:user_code/pid.c **** // еӨҮжіЁдҝЎжҒҜ     жӯӨзӨәдҫӢеҸҜд»Ҙиҫ“еҮәйҖҡиҝҮPIDи°ғиҠӮеҗҺзҡ„IMUиҲӘеҗ‘и§’ж•°жҚ®
  49:user_code/pid.c **** //-------------------------------------------------------------------------------------------------
  50:user_code/pid.c **** float pid_compute(pid_controller *pid, float input)
  51:user_code/pid.c **** {
 119              		.loc 1 51 1
 120              		.cfi_startproc
 121              		@ args = 0, pretend = 0, frame = 32
 122              		@ frame_needed = 0, uses_anonymous_args = 0
 123              		@ link register save eliminated.
 124 0000 88B0     		sub	sp, sp, #32
 125              		.cfi_def_cfa_offset 32
 126 0002 0190     		str	r0, [sp, #4]
 127 0004 8DED000A 		vstr.32	s0, [sp]
  52:user_code/pid.c ****     // и®Ўз®—еҺҹе§ӢиҜҜе·®
  53:user_code/pid.c ****     float raw_error = pid->setpoint - input;
 128              		.loc 1 53 26
 129 0008 019B     		ldr	r3, [sp, #4]
 130 000a 93ED037A 		vldr.32	s14, [r3, #12]
 131              		.loc 1 53 11
 132 000e DDED007A 		vldr.32	s15, [sp]
 133 0012 77EE677A 		vsub.f32	s15, s14, s15
 134 0016 CDED067A 		vstr.32	s15, [sp, #24]
  54:user_code/pid.c **** 
  55:user_code/pid.c ****     // еӨ„зҗҶи§’еәҰзҺҜз»•й—®йўҳ
  56:user_code/pid.c ****     float error = raw_error;
 135              		.loc 1 56 11
 136 001a 069B     		ldr	r3, [sp, #24]	@ float
 137 001c 0793     		str	r3, [sp, #28]	@ float
  57:user_code/pid.c ****     if (error > 180.0f) {
 138              		.loc 1 57 8
 139 001e DDED077A 		vldr.32	s15, [sp, #28]
 140 0022 9FED5C7A 		vldr.32	s14, .L27
 141 0026 F4EEC77A 		vcmpe.f32	s15, s14
 142 002a F1EE10FA 		vmrs	APSR_nzcv, FPSCR
 143 002e 08DD     		ble	.L25
  58:user_code/pid.c ****         error -= 360.0f;
 144              		.loc 1 58 15
 145 0030 DDED077A 		vldr.32	s15, [sp, #28]
 146 0034 9FED587A 		vldr.32	s14, .L27+4
 147 0038 77EEC77A 		vsub.f32	s15, s15, s14
 148 003c CDED077A 		vstr.32	s15, [sp, #28]
 149 0040 10E0     		b	.L8
 150              	.L25:
  59:user_code/pid.c ****     } else if (error < -180.0f) {
 151              		.loc 1 59 15
 152 0042 DDED077A 		vldr.32	s15, [sp, #28]
 153 0046 9FED557A 		vldr.32	s14, .L27+8
 154 004a F4EEC77A 		vcmpe.f32	s15, s14
 155 004e F1EE10FA 		vmrs	APSR_nzcv, FPSCR
 156 0052 07D5     		bpl	.L8
  60:user_code/pid.c ****         error += 360.0f;
 157              		.loc 1 60 15
 158 0054 DDED077A 		vldr.32	s15, [sp, #28]
 159 0058 9FED4F7A 		vldr.32	s14, .L27+4
 160 005c 77EE877A 		vadd.f32	s15, s15, s14
 161 0060 CDED077A 		vstr.32	s15, [sp, #28]
 162              	.L8:
  61:user_code/pid.c ****     }
  62:user_code/pid.c **** 
  63:user_code/pid.c ****     // жҜ”дҫӢйЎ№
  64:user_code/pid.c ****     float proportional = pid->Kp * error;
 163              		.loc 1 64 29
 164 0064 019B     		ldr	r3, [sp, #4]
 165 0066 D3ED007A 		vldr.32	s15, [r3]
 166              		.loc 1 64 11
 167 006a 9DED077A 		vldr.32	s14, [sp, #28]
 168 006e 67EE277A 		vmul.f32	s15, s14, s15
 169 0072 CDED057A 		vstr.32	s15, [sp, #20]
  65:user_code/pid.c **** 
  66:user_code/pid.c ****     // з§ҜеҲҶйЎ№пјҲжҠ—йҘұе’ҢеӨ„зҗҶпјү
  67:user_code/pid.c ****     pid->integral += error;
 170              		.loc 1 67 19
 171 0076 019B     		ldr	r3, [sp, #4]
 172 0078 93ED047A 		vldr.32	s14, [r3, #16]
 173 007c DDED077A 		vldr.32	s15, [sp, #28]
 174 0080 77EE277A 		vadd.f32	s15, s14, s15
 175 0084 019B     		ldr	r3, [sp, #4]
 176 0086 C3ED047A 		vstr.32	s15, [r3, #16]
  68:user_code/pid.c ****     if (pid->integral * pid->Ki > pid->out_max)
 177              		.loc 1 68 12
 178 008a 019B     		ldr	r3, [sp, #4]
 179 008c 93ED047A 		vldr.32	s14, [r3, #16]
 180              		.loc 1 68 28
 181 0090 019B     		ldr	r3, [sp, #4]
 182 0092 D3ED017A 		vldr.32	s15, [r3, #4]
 183              		.loc 1 68 23
 184 0096 27EE277A 		vmul.f32	s14, s14, s15
 185              		.loc 1 68 38
 186 009a 019B     		ldr	r3, [sp, #4]
 187 009c D3ED087A 		vldr.32	s15, [r3, #32]
 188              		.loc 1 68 8
 189 00a0 B4EEE77A 		vcmpe.f32	s14, s15
 190 00a4 F1EE10FA 		vmrs	APSR_nzcv, FPSCR
 191 00a8 0BDD     		ble	.L26
  69:user_code/pid.c ****     {
  70:user_code/pid.c ****         pid->integral = pid->out_max / pid->Ki;
 192              		.loc 1 70 28
 193 00aa 019B     		ldr	r3, [sp, #4]
 194 00ac D3ED086A 		vldr.32	s13, [r3, #32]
 195              		.loc 1 70 43
 196 00b0 019B     		ldr	r3, [sp, #4]
 197 00b2 93ED017A 		vldr.32	s14, [r3, #4]
 198              		.loc 1 70 38
 199 00b6 C6EE877A 		vdiv.f32	s15, s13, s14
 200              		.loc 1 70 23
 201 00ba 019B     		ldr	r3, [sp, #4]
 202 00bc C3ED047A 		vstr.32	s15, [r3, #16]
 203 00c0 1AE0     		b	.L12
 204              	.L26:
  71:user_code/pid.c ****     }
  72:user_code/pid.c ****     else if (pid->integral * pid->Ki < pid->out_min)
 205              		.loc 1 72 17
 206 00c2 019B     		ldr	r3, [sp, #4]
 207 00c4 93ED047A 		vldr.32	s14, [r3, #16]
 208              		.loc 1 72 33
 209 00c8 019B     		ldr	r3, [sp, #4]
 210 00ca D3ED017A 		vldr.32	s15, [r3, #4]
 211              		.loc 1 72 28
 212 00ce 27EE277A 		vmul.f32	s14, s14, s15
 213              		.loc 1 72 43
 214 00d2 019B     		ldr	r3, [sp, #4]
 215 00d4 D3ED077A 		vldr.32	s15, [r3, #28]
 216              		.loc 1 72 13
 217 00d8 B4EEE77A 		vcmpe.f32	s14, s15
 218 00dc F1EE10FA 		vmrs	APSR_nzcv, FPSCR
 219 00e0 0AD5     		bpl	.L12
  73:user_code/pid.c ****     {
  74:user_code/pid.c ****         pid->integral = pid->out_min / pid->Ki;
 220              		.loc 1 74 28
 221 00e2 019B     		ldr	r3, [sp, #4]
 222 00e4 D3ED076A 		vldr.32	s13, [r3, #28]
 223              		.loc 1 74 43
 224 00e8 019B     		ldr	r3, [sp, #4]
 225 00ea 93ED017A 		vldr.32	s14, [r3, #4]
 226              		.loc 1 74 38
 227 00ee C6EE877A 		vdiv.f32	s15, s13, s14
 228              		.loc 1 74 23
 229 00f2 019B     		ldr	r3, [sp, #4]
 230 00f4 C3ED047A 		vstr.32	s15, [r3, #16]
 231              	.L12:
  75:user_code/pid.c ****     }
  76:user_code/pid.c ****     float integral = pid->Ki * pid->integral;
 232              		.loc 1 76 25
 233 00f8 019B     		ldr	r3, [sp, #4]
 234 00fa 93ED017A 		vldr.32	s14, [r3, #4]
 235              		.loc 1 76 35
 236 00fe 019B     		ldr	r3, [sp, #4]
 237 0100 D3ED047A 		vldr.32	s15, [r3, #16]
 238              		.loc 1 76 11
 239 0104 67EE277A 		vmul.f32	s15, s14, s15
 240 0108 CDED047A 		vstr.32	s15, [sp, #16]
  77:user_code/pid.c **** 
  78:user_code/pid.c ****     // еҫ®еҲҶйЎ№пјҲдҪҝз”ЁеӨ„зҗҶеҗҺзҡ„иҜҜе·®пјү
  79:user_code/pid.c ****     float derivative = pid->Kd * (error - pid->prev_error);
 241              		.loc 1 79 27
 242 010c 019B     		ldr	r3, [sp, #4]
 243 010e 93ED027A 		vldr.32	s14, [r3, #8]
 244              		.loc 1 79 46
 245 0112 019B     		ldr	r3, [sp, #4]
 246 0114 D3ED057A 		vldr.32	s15, [r3, #20]
 247              		.loc 1 79 41
 248 0118 DDED076A 		vldr.32	s13, [sp, #28]
 249 011c 76EEE77A 		vsub.f32	s15, s13, s15
 250              		.loc 1 79 11
 251 0120 67EE277A 		vmul.f32	s15, s14, s15
 252 0124 CDED037A 		vstr.32	s15, [sp, #12]
  80:user_code/pid.c ****     pid->prev_error = error;
 253              		.loc 1 80 21
 254 0128 019B     		ldr	r3, [sp, #4]
 255 012a 079A     		ldr	r2, [sp, #28]	@ float
 256 012c 5A61     		str	r2, [r3, #20]	@ float
  81:user_code/pid.c **** 
  82:user_code/pid.c ****     // и®Ўз®—жҖ»иҫ“еҮә
  83:user_code/pid.c ****     pid->output = proportional + integral + derivative;
 257              		.loc 1 83 32
 258 012e 9DED057A 		vldr.32	s14, [sp, #20]
 259 0132 DDED047A 		vldr.32	s15, [sp, #16]
 260 0136 37EE277A 		vadd.f32	s14, s14, s15
 261              		.loc 1 83 43
 262 013a DDED037A 		vldr.32	s15, [sp, #12]
 263 013e 77EE277A 		vadd.f32	s15, s14, s15
 264              		.loc 1 83 17
 265 0142 019B     		ldr	r3, [sp, #4]
 266 0144 C3ED067A 		vstr.32	s15, [r3, #24]
  84:user_code/pid.c **** 
  85:user_code/pid.c ****     // йҷҗеҲ¶иҫ“еҮәиҢғеӣҙ
  86:user_code/pid.c ****     if (pid->output > pid->out_max) pid->output = pid->out_max;
 267              		.loc 1 86 12
 268 0148 019B     		ldr	r3, [sp, #4]
 269 014a 93ED067A 		vldr.32	s14, [r3, #24]
 270              		.loc 1 86 26
 271 014e 019B     		ldr	r3, [sp, #4]
 272 0150 D3ED087A 		vldr.32	s15, [r3, #32]
 273              		.loc 1 86 8
 274 0154 B4EEE77A 		vcmpe.f32	s14, s15
 275 0158 F1EE10FA 		vmrs	APSR_nzcv, FPSCR
 276 015c 03DD     		ble	.L14
 277              		.loc 1 86 54 discriminator 1
 278 015e 019B     		ldr	r3, [sp, #4]
 279 0160 1A6A     		ldr	r2, [r3, #32]	@ float
 280              		.loc 1 86 49 discriminator 1
 281 0162 019B     		ldr	r3, [sp, #4]
 282 0164 9A61     		str	r2, [r3, #24]	@ float
 283              	.L14:
  87:user_code/pid.c ****     if (pid->output < pid->out_min) pid->output = pid->out_min;
 284              		.loc 1 87 12
 285 0166 019B     		ldr	r3, [sp, #4]
 286 0168 93ED067A 		vldr.32	s14, [r3, #24]
 287              		.loc 1 87 26
 288 016c 019B     		ldr	r3, [sp, #4]
 289 016e D3ED077A 		vldr.32	s15, [r3, #28]
 290              		.loc 1 87 8
 291 0172 B4EEE77A 		vcmpe.f32	s14, s15
 292 0176 F1EE10FA 		vmrs	APSR_nzcv, FPSCR
 293 017a 03D5     		bpl	.L16
 294              		.loc 1 87 54 discriminator 1
 295 017c 019B     		ldr	r3, [sp, #4]
 296 017e DA69     		ldr	r2, [r3, #28]	@ float
 297              		.loc 1 87 49 discriminator 1
 298 0180 019B     		ldr	r3, [sp, #4]
 299 0182 9A61     		str	r2, [r3, #24]	@ float
 300              	.L16:
  88:user_code/pid.c **** 
  89:user_code/pid.c ****     return pid->output;
 301              		.loc 1 89 15
 302 0184 019B     		ldr	r3, [sp, #4]
 303 0186 9B69     		ldr	r3, [r3, #24]	@ float
 304 0188 07EE903A 		vmov	s15, r3
  90:user_code/pid.c **** }
 305              		.loc 1 90 1
 306 018c B0EE670A 		vmov.f32	s0, s15
 307 0190 08B0     		add	sp, sp, #32
 308              		.cfi_def_cfa_offset 0
 309              		@ sp needed
 310 0192 7047     		bx	lr
 311              	.L28:
 312              		.align	2
 313              	.L27:
 314 0194 00003443 		.word	1127481344
 315 0198 0000B443 		.word	1135869952
 316 019c 000034C3 		.word	-1020002304
 317              		.cfi_endproc
 318              	.LFE484:
 320              		.section	.text.pid_reset,"ax",%progbits
 321              		.align	1
 322              		.p2align 4,,15
 323              		.global	pid_reset
 324              		.syntax unified
 325              		.thumb
 326              		.thumb_func
 328              	pid_reset:
 329              	.LFB485:
  91:user_code/pid.c **** 
  92:user_code/pid.c **** //-------------------------------------------------------------------------------------------------
  93:user_code/pid.c **** // еҮҪж•°з®Җд»Ӣ     йҮҚзҪ®PIDжҺ§еҲ¶еҷЁ
  94:user_code/pid.c **** // еҸӮж•°иҜҙжҳҺ     *pid                PIDжҺ§еҲ¶еҷЁ
  95:user_code/pid.c **** // иҝ”еӣһеҸӮж•°     void
  96:user_code/pid.c **** // дҪҝз”ЁзӨәдҫӢ
  97:user_code/pid.c **** // еӨҮжіЁдҝЎжҒҜ
  98:user_code/pid.c **** //-------------------------------------------------------------------------------------------------
  99:user_code/pid.c **** void pid_reset(pid_controller *pid)
 100:user_code/pid.c **** {
 330              		.loc 1 100 1
 331              		.cfi_startproc
 332              		@ args = 0, pretend = 0, frame = 8
 333              		@ frame_needed = 0, uses_anonymous_args = 0
 334              		@ link register save eliminated.
 335 0000 82B0     		sub	sp, sp, #8
 336              		.cfi_def_cfa_offset 8
 337 0002 0190     		str	r0, [sp, #4]
 101:user_code/pid.c ****     pid->integral = 0.0f;
 338              		.loc 1 101 19
 339 0004 019B     		ldr	r3, [sp, #4]
 340 0006 4FF00002 		mov	r2, #0
 341 000a 1A61     		str	r2, [r3, #16]	@ float
 102:user_code/pid.c ****     pid->prev_error = 0.0f;
 342              		.loc 1 102 21
 343 000c 019B     		ldr	r3, [sp, #4]
 344 000e 4FF00002 		mov	r2, #0
 345 0012 5A61     		str	r2, [r3, #20]	@ float
 103:user_code/pid.c ****     pid->output = 0.0f;
 346              		.loc 1 103 17
 347 0014 019B     		ldr	r3, [sp, #4]
 348 0016 4FF00002 		mov	r2, #0
 349 001a 9A61     		str	r2, [r3, #24]	@ float
 104:user_code/pid.c **** }
 350              		.loc 1 104 1
 351 001c 00BF     		nop
 352 001e 02B0     		add	sp, sp, #8
 353              		.cfi_def_cfa_offset 0
 354              		@ sp needed
 355 0020 7047     		bx	lr
 356              		.cfi_endproc
 357              	.LFE485:
 359 0022 00BF     		.text
 360              	.Letext0:
 361              		.file 2 "user_code/pid.h"