   1              		.cpu cortex-m7
   2              		.arch armv7e-m
   3              		.fpu fpv5-d16
   4              		.eabi_attribute 28, 1
   5              		.eabi_attribute 20, 1
   6              		.eabi_attribute 21, 1
   7              		.eabi_attribute 23, 3
   8              		.eabi_attribute 24, 1
   9              		.eabi_attribute 25, 1
  10              		.eabi_attribute 26, 1
  11              		.eabi_attribute 30, 6
  12              		.eabi_attribute 34, 1
  13              		.eabi_attribute 18, 4
  14              		.file	"main.c"
  15              		.text
  16              	.Ltext0:
  17              		.cfi_sections	.debug_frame
  18              		.section	.data.channel_ptr,"aw"
  19              		.align	2
  22              	channel_ptr:
  23 0000 00000000 		.word	uart_receiver
  24              		.global	imu_data
  25              		.section	.bss.imu_data,"aw",%nobits
  26              		.align	2
  29              	imu_data:
  30 0000 00000000 		.space	12
  30      00000000 
  30      00000000 
  31              		.global	imu_physical_data
  32              		.section	.bss.imu_physical_data,"aw",%nobits
  33              		.align	2
  36              	imu_physical_data:
  37 0000 00000000 		.space	24
  37      00000000 
  37      00000000 
  37      00000000 
  37      00000000 
  38              		.global	imu_pid
  39              		.section	.bss.imu_pid,"aw",%nobits
  40              		.align	2
  43              	imu_pid:
  44 0000 00000000 		.space	36
  44      00000000 
  44      00000000 
  44      00000000 
  44      00000000 
  45              		.global	current_angles
  46              		.section	.bss.current_angles,"aw",%nobits
  47              		.align	2
  50              	current_angles:
  51 0000 00000000 		.space	16
  51      00000000 
  51      00000000 
  51      00000000 
  52              		.global	key
  53              		.section	.bss.key,"aw",%nobits
  56              	key:
  57 0000 00       		.space	1
  58              		.global	calibration_done
  59              		.section	.bss.calibration_done,"aw",%nobits
  62              	calibration_done:
  63 0000 00       		.space	1
  64              		.section	.rodata
  65              		.align	2
  66              	.LC0:
  67 0000 63617220 		.ascii	"car run:\000"
  67      72756E3A 
  67      00
  68 0009 000000   		.align	2
  69              	.LC1:
  70 000c 6E657874 		.ascii	"next lat/lot:\000"
  70      206C6174 
  70      2F6C6F74 
  70      3A00
  71 001a 0000     		.align	2
  72              	.LC2:
  73 001c 6E6F7720 		.ascii	"now lat/lot:\000"
  73      6C61742F 
  73      6C6F743A 
  73      00
  74 0029 000000   		.align	2
  75              	.LC3:
  76 002c 676F2061 		.ascii	"go angle:\000"
  76      6E676C65 
  76      3A00
  77 0036 0000     		.align	2
  78              	.LC4:
  79 0038 76697274 		.ascii	"virtual_north:\000"
  79      75616C5F 
  79      6E6F7274 
  79      683A00
  80 0047 00       		.align	2
  81              	.LC5:
  82 0048 63757272 		.ascii	"current_yaw:\000"
  82      656E745F 
  82      7961773A 
  82      00
  83 0055 000000   		.align	2
  84              	.LC6:
  85 0058 696D755F 		.ascii	"imu_yaw:\000"
  85      7961773A 
  85      00
  86 0061 000000   		.align	2
  87              	.LC7:
  88 0064 72656D6F 		.ascii	"remote control\000"
  88      74652063 
  88      6F6E7472 
  88      6F6C00
  89              		.section	.text.main,"ax",%progbits
  90              		.align	1
  91              		.p2align 4,,15
  92              		.global	main
  93              		.syntax unified
  94              		.thumb
  95              		.thumb_func
  97              	main:
  98              	.LFB482:
  99              		.file 1 "src/main.c"
   1:src/main.c    **** /**************************************************************************************************
   2:src/main.c    **** * Stellar-SR5E1E3 Opensource Library ÕŹ│’╝łStellar-SR5E1E3 Õ╝Ćµ║ÉÕ║ō’╝ēµś»õĖĆõĖ¬Õ¤║õ║ÄÕ«śµ¢╣ SDK µÄ
   3:src/main.c    **** * Copyright (c) 2022 SEEKFREE ķĆÉķŻ×ń¦æµŖĆ
   4:src/main.c    **** *
   5:src/main.c    **** * µ£¼µ¢ćõ╗Čµś» Stellar-SR5E1E3 Õ╝Ćµ║ÉÕ║ōńÜäõĖĆķā©Õłå
   6:src/main.c    **** *
   7:src/main.c    **** * Stellar-SR5E1E3 Õ╝Ćµ║ÉÕ║ō µś»ÕģŹĶ┤╣ĶĮ»õ╗Č
   8:src/main.c    **** * µé©ÕÅ»õ╗źµĀ╣µŹ«Ķć¬ńö▒ĶĮ»õ╗ČÕ¤║ķćæõ╝ÜÕÅæÕĖāńÜä GPL’╝łGNU General Public License’╝īÕŹ│ GNUķĆÜńö©Õģ¼
   9:src/main.c    **** * ÕŹ│ GPL ńÜäń¼¼3ńēł’╝łÕŹ│ GPL3.0’╝ēµł¢’╝łµé©ķĆēµŗ®ńÜä’╝ēõ╗╗õĮĢÕÉÄµØźńÜäńēłµ£¼’╝īķćŹµ¢░ÕÅæÕĖāÕÆī/µł
  10:src/main.c    **** *
  11:src/main.c    **** * µ£¼Õ╝Ćµ║ÉÕ║ōńÜäÕÅæÕĖāµś»ÕĖīµ£øÕ«āĶāĮÕÅæµīźõĮ£ńö©’╝īõĮåÕ╣Čµ£¬Õ»╣ÕģČõĮ£õ╗╗õĮĢńÜäõ┐ØĶ»ü
  12:src/main.c    **** * ńöÜĶć│µ▓Īµ£ēķÜÉÕÉ½ńÜäķĆéķöĆµĆ¦µł¢ķĆéÕÉłńē╣Õ«Üńö©ķĆöńÜäõ┐ØĶ»ü
  13:src/main.c    **** * µø┤ÕżÜń╗åĶŖéĶ»ĘÕÅéĶ¦ü GPL
  14:src/main.c    **** *
  15:src/main.c    **** * µé©Õ║öĶ»źÕ£©µöČÕł░µ£¼Õ╝Ćµ║ÉÕ║ōńÜäÕÉīµŚČµöČÕł░õĖĆõ╗Į GPL ńÜäÕē»µ£¼
  16:src/main.c    **** * Õ”éµ×£µ▓Īµ£ē’╝īĶ»ĘÕÅéķśģ<https://www.gnu.org/licenses/>
  17:src/main.c    **** *
  18:src/main.c    **** * ķóØÕż¢µ│©µśÄ’╝Ü
  19:src/main.c    **** * µ£¼Õ╝Ćµ║ÉÕ║ōõĮ┐ńö© GPL3.0 Õ╝Ćµ║ÉĶ«ĖÕÅ»Ķ»üÕŹÅĶ«« õ╗źõĖŖĶ«ĖÕÅ»ńö│µśÄõĖ║Ķ»æµ¢ćńēłµ£¼
  20:src/main.c    **** * Ķ«ĖÕÅ»ńö│µśÄĶŗ▒µ¢ćńēłÕ£© libraries/doc µ¢ćõ╗ČÕż╣õĖŗńÜä GPL3_permission_statement.txt µ¢ćõ╗ČõĖŁ
  21:src/main.c    **** * Ķ«ĖÕÅ»Ķ»üÕē»µ£¼Õ£© libraries µ¢ćõ╗ČÕż╣õĖŗ ÕŹ│Ķ»źµ¢ćõ╗ČÕż╣õĖŗńÜä LICENSE µ¢ćõ╗Č
  22:src/main.c    **** * µ¼óĶ┐ÄÕÉäõĮŹõĮ┐ńö©Õ╣Čõ╝ĀµÆŁµ£¼ń©ŗÕ║Å õĮåõ┐«µö╣ÕåģÕ«╣µŚČÕ┐ģķĪ╗õ┐ØńĢÖķĆÉķŻ×ń¦æµŖĆńÜäńēłµØāÕŻ░µśÄ’╝ł
  23:src/main.c    **** *
  24:src/main.c    **** * µ¢ćõ╗ČÕÉŹń¦░          main
  25:src/main.c    **** * Õģ¼ÕÅĖÕÉŹń¦░          µłÉķāĮķĆÉķŻ×ń¦æµŖĆµ£ēķÖÉÕģ¼ÕÅĖ
  26:src/main.c    **** * ńēłµ£¼õ┐Īµü»          µ¤źń£ŗ libraries/doc µ¢ćõ╗ČÕż╣Õåģ version µ¢ćõ╗Č ńēłµ£¼Ķ»┤µśÄ
  27:src/main.c    **** * Õ╝ĆÕÅæńÄ»Õóā          StellarStudio 7.0.0
  28:src/main.c    **** * ķĆéńö©Õ╣│ÕÅ░          Stellar-SR5E1E3
  29:src/main.c    **** * Õ║Śķō║ķōŠµÄź          https://www.seekfree.cn/
  30:src/main.c    **** ***************************************************************************************************
  31:src/main.c    **** 
  32:src/main.c    **** #include "zf_libraries_headfile.h"
  33:src/main.c    **** 
  34:src/main.c    **** #include "led.h"
  35:src/main.c    **** #include "moto.h"
  36:src/main.c    **** #include "servo.h"
  37:src/main.c    **** #include "key.h"
  38:src/main.c    **** #include "remote_control.h"
  39:src/main.c    **** #include "quaternion.h"
  40:src/main.c    **** #include "imu660rb.h"
  41:src/main.c    **** #include "pid.h"
  42:src/main.c    **** #include "GPS.h"
  43:src/main.c    **** 
  44:src/main.c    **** // ****************************** µĄŗĶ»ĢĶ»┤µśÄ ***************************
  45:src/main.c    **** // PE4------>ńöĄµ£║ķ®▒ÕŖ©PWMÕ╝ĢĶäÜ
  46:src/main.c    **** // PE2------>ńöĄµ£║ķ®▒ÕŖ©DIRÕ╝ĢĶäÜ
  47:src/main.c    **** // PD13----->Ķ░āĶ»Ģńö©ńż║µ│óÕÖ©Õ╝ĢĶäÜ
  48:src/main.c    **** // PI0------>ĶłĄµ£║õ┐ĪÕÅĘÕ╝ĢĶäÜ
  49:src/main.c    **** // PG15----->ń╗┐Ķē▓ńü»Õ╝ĢĶäÜ
  50:src/main.c    **** // PG14----->ń║óĶē▓ńü»Õ╝ĢĶäÜ
  51:src/main.c    **** // PH0------>ĶōØĶē▓ńü»Õ╝ĢĶäÜ
  52:src/main.c    **** // PA6------>ķüźµÄ¦ÕÖ©µÄźµöČµĢ░µŹ«Õ╝ĢĶäÜ
  53:src/main.c    **** // ******************************************************************
  54:src/main.c    **** 
  55:src/main.c    **** #define MAX_DUTY                       (30)                     // µ£ĆÕż¦ MAX_DUTY% ÕŹĀń®║µ»ö
  56:src/main.c    **** 
  57:src/main.c    **** static const uint16 *channel_ptr  =   uart_receiver.channel;    // µīćÕÉæķüźµÄ¦ÕÖ©ÕŁśÕé©µĢ░µŹ«Õī║Õ¤
  58:src/main.c    **** 
  59:src/main.c    **** extern int16 gyro_bias_x;                                       // ķÖĆĶ×║õ╗¬ķøČÕüÅÕĆ╝ÕÅśķćÅ
  60:src/main.c    **** extern int16 gyro_bias_y;                                       // ķÖĆĶ×║õ╗¬ķøČÕüÅÕĆ╝ÕÅśķćÅ
  61:src/main.c    **** extern int16 gyro_bias_z;                                       // ķÖĆĶ×║õ╗¬ķøČÕüÅÕĆ╝ÕÅśķćÅ
  62:src/main.c    **** 
  63:src/main.c    **** imu660rb_measurement_data_struct imu_data[2]          = {0};    // IMUÕÄ¤Õ¦ŗµĢ░µŹ«
  64:src/main.c    **** imu660rb_physical_data_struct    imu_physical_data[2] = {0};    // IMUńē®ńÉåķćÅµĢ░µŹ«’╝łńē®ńÉåķćÅõĖ
  65:src/main.c    **** pid_controller imu_pid;                                         // Ķł¬ÕÉæĶ¦ÆpidµÄ¦ÕłČÕÖ©
  66:src/main.c    **** eulerangles    current_angles;                                  // ÕĮōÕēŹµ¼¦µŗēĶ¦Æ
  67:src/main.c    **** uint8 key = 0;                                                  // ķö«ÕĆ╝
  68:src/main.c    **** uint8 calibration_done;                                         // µĀĪÕćåµĀćÕ┐Ś
  69:src/main.c    **** 
  70:src/main.c    **** //-------------------------------------------------------------------------------------------------
  71:src/main.c    **** // ÕćĮµĢ░ń«Ćõ╗ŗ     õĖ╗ÕćĮµĢ░
  72:src/main.c    **** // ÕÅéµĢ░Ķ»┤µśÄ     void            µŚĀÕÅéµĢ░
  73:src/main.c    **** // Ķ┐öÕø×ÕÅéµĢ░     void            µŚĀĶ┐öÕø×ÕĆ╝
  74:src/main.c    **** // õĮ┐ńö©ńż║õŠŗ
  75:src/main.c    **** // Õżćµ│©õ┐Īµü»
  76:src/main.c    **** //-------------------------------------------------------------------------------------------------
  77:src/main.c    **** int main (void)
  78:src/main.c    **** {
 100              		.loc 1 78 1
 101              		.cfi_startproc
 102              		@ args = 0, pretend = 0, frame = 40
 103              		@ frame_needed = 0, uses_anonymous_args = 0
 104 0000 00B5     		push	{lr}
 105              		.cfi_def_cfa_offset 4
 106              		.cfi_offset 14, -4
 107 0002 8DB0     		sub	sp, sp, #52
 108              		.cfi_def_cfa_offset 56
  79:src/main.c    ****      zf_system_clock_init(SYSTEM_CLOCK_300M);                         // ÕłØÕ¦ŗÕī¢ĶŖ»ńēćµŚČķÆ¤ ÕĘźõ
 109              		.loc 1 79 6
 110 0004 B048     		ldr	r0, .L18+16
 111 0006 FFF7FEFF 		bl	zf_system_clock_init
  80:src/main.c    ****     debug_init();                                                    // ÕłØÕ¦ŗÕī¢ķ╗śĶ«ż Debug UART
 112              		.loc 1 80 5
 113 000a FFF7FEFF 		bl	debug_init
  81:src/main.c    **** 
  82:src/main.c    **** 
  83:src/main.c    ****     float pid_output = 0;                                            // PIDĶŠōÕć║
 114              		.loc 1 83 11
 115 000e 4FF00003 		mov	r3, #0
 116 0012 0593     		str	r3, [sp, #20]	@ float
  84:src/main.c    ****     uint8 gnns_sum = 1;
 117              		.loc 1 84 11
 118 0014 0123     		movs	r3, #1
 119 0016 8DF82F30 		strb	r3, [sp, #47]
  85:src/main.c    ****     uint8 GL_CRC_state = 0;
 120              		.loc 1 85 11
 121 001a 0023     		movs	r3, #0
 122 001c 8DF81330 		strb	r3, [sp, #19]
  86:src/main.c    ****     uint16  remote_ch4= uart_receiver.channel[3];                    // ķüźµÄ¦ÕÖ©SWBµīēķö«µĢ░µŹ«ķĆÜ
 123              		.loc 1 86 13
 124 0020 AA4B     		ldr	r3, .L18+20
 125 0022 DB88     		ldrh	r3, [r3, #6]	@ movhi
 126 0024 ADF81030 		strh	r3, [sp, #16]	@ movhi
  87:src/main.c    ****     double current_yaw;                                              // ÕĮōÕēŹĶł¬ÕÉæĶ¦Æ
  88:src/main.c    ****     double current_distance;                                         // ÕĮōÕēŹÕØÉµĀćÕł░ńø«µĀćńé╣ńÜä
  89:src/main.c    ****     double current_yaw_180;                                          // ÕĮōÕēŹĶł¬ÕÉæĶ¦Æ(-180-180)
  90:src/main.c    **** 
  91:src/main.c    ****     dlw_led_init();                                                  // LEDÕłØÕ¦ŗÕī¢
 127              		.loc 1 91 5
 128 0028 FFF7FEFF 		bl	dlw_led_init
  92:src/main.c    ****     dlw_key_init();                                                  // µīēķö«ÕłØÕ¦ŗÕī¢
 129              		.loc 1 92 5
 130 002c FFF7FEFF 		bl	dlw_key_init
  93:src/main.c    ****     dlw_moto_pwm_init();                                             // ńöĄµ£║ÕłØÕ¦ŗÕī¢
 131              		.loc 1 93 5
 132 0030 FFF7FEFF 		bl	dlw_moto_pwm_init
  94:src/main.c    ****     dlw_servo_init(PWM_TIM8_CH1_I0, SERVO_MED_PULSE);                // ĶłĄµ£║ÕłØÕ¦ŗÕī¢
 133              		.loc 1 94 5
 134 0034 40F2EE21 		movw	r1, #750
 135 0038 A548     		ldr	r0, .L18+24
 136 003a FFF7FEFF 		bl	dlw_servo_init
  95:src/main.c    ****     dlw_remote_control_init();                                       // ķüźµÄ¦ÕÖ©ÕłØÕ¦ŗÕī¢
 137              		.loc 1 95 5
 138 003e FFF7FEFF 		bl	dlw_remote_control_init
  96:src/main.c    ****     dlw_imu660rb_init();                                             // IMUÕłØÕ¦ŗÕī¢
 139              		.loc 1 96 5
 140 0042 FFF7FEFF 		bl	dlw_imu660rb_init
  97:src/main.c    ****     dlw_imu660rb_calibration();                                      // IMUµĀĪÕćå
 141              		.loc 1 97 5
 142 0046 FFF7FEFF 		bl	dlw_imu660rb_calibration
  98:src/main.c    ****     quaternion_init();                                               // ÕøøÕģāµĢ░ÕłØÕ¦ŗÕī¢
 143              		.loc 1 98 5
 144 004a FFF7FEFF 		bl	quaternion_init
  99:src/main.c    ****     pid_init(&imu_pid);                                              // pidÕłØÕ¦ŗÕī¢
 145              		.loc 1 99 5
 146 004e A148     		ldr	r0, .L18+28
 147 0050 FFF7FEFF 		bl	pid_init
 100:src/main.c    ****     pid_set_limits(&imu_pid, -100.0f, 100.0f);                       // ĶŠōÕć║ķÖÉÕłČÕ£©┬▒100õ╣ŗķŚ┤
 148              		.loc 1 100 5
 149 0054 DFEDA00A 		vldr.32	s1, .L18+32
 150 0058 9FEDA00A 		vldr.32	s0, .L18+36
 151 005c 9D48     		ldr	r0, .L18+28
 152 005e FFF7FEFF 		bl	pid_set_limits
 101:src/main.c    ****     ips200_init(IPS200_TYPE_SPI);                                    // Õ▒ÅÕ╣ĢÕłØÕ¦ŗÕī¢
 153              		.loc 1 101 5
 154 0062 0020     		movs	r0, #0
 155 0064 FFF7FEFF 		bl	ips200_init
 102:src/main.c    ****     dlw_gps_init();                                                  // RTKÕłØÕ¦ŗÕī¢
 156              		.loc 1 102 5
 157 0068 FFF7FEFF 		bl	dlw_gps_init
 103:src/main.c    ****     zf_gpio_deinit(F3);
 158              		.loc 1 103 5
 159 006c A320     		movs	r0, #163
 160 006e FFF7FEFF 		bl	zf_gpio_deinit
 104:src/main.c    ****     zf_gpio_init(F3, GPI_PULL_DOWN, 0);
 161              		.loc 1 104 5
 162 0072 0022     		movs	r2, #0
 163 0074 0221     		movs	r1, #2
 164 0076 A320     		movs	r0, #163
 165 0078 FFF7FEFF 		bl	zf_gpio_init
 105:src/main.c    ****     zf_gpio_deinit(F3);
 166              		.loc 1 105 5
 167 007c A320     		movs	r0, #163
 168 007e FFF7FEFF 		bl	zf_gpio_deinit
 106:src/main.c    ****     zf_gpio_init(F2, GPO_PUSH_PULL, 1);
 169              		.loc 1 106 5
 170 0082 0122     		movs	r2, #1
 171 0084 1021     		movs	r1, #16
 172 0086 A220     		movs	r0, #162
 173 0088 FFF7FEFF 		bl	zf_gpio_init
 107:src/main.c    **** 
 108:src/main.c    **** 
 109:src/main.c    ****     zf_pit_ms_init(PIT_TIM7, 500, rgb_flicker_handler, NULL);        // LEDńü»õĖōÕ▒×Õ«ÜµŚČÕÖ©õĖŁµ¢Ł
 174              		.loc 1 109 5
 175 008c 0023     		movs	r3, #0
 176 008e 944A     		ldr	r2, .L18+40
 177 0090 4FF4FA71 		mov	r1, #500
 178 0094 0920     		movs	r0, #9
 179 0096 FFF7FEFF 		bl	zf_pit_ms_init
 110:src/main.c    ****     zf_pit_ms_init(PIT_TIM6, 5, imu_pit_handler, imu_data);          // imuÕ«ÜµŚČÕÖ©õĖŁµ¢ŁÕłØÕ¦ŗÕī¢
 180              		.loc 1 110 5
 181 009a 924B     		ldr	r3, .L18+44
 182 009c 924A     		ldr	r2, .L18+48
 183 009e 0521     		movs	r1, #5
 184 00a0 0820     		movs	r0, #8
 185 00a2 FFF7FEFF 		bl	zf_pit_ms_init
 111:src/main.c    ****     zf_pit_ms_init(PIT_TIM1, 10, RTK_pit_handler, NULL);             // RTKÕ«ÜµŚČÕÖ©õĖŁµ¢ŁÕłØÕ¦ŗÕī¢
 186              		.loc 1 111 5
 187 00a6 0023     		movs	r3, #0
 188 00a8 904A     		ldr	r2, .L18+52
 189 00aa 0A21     		movs	r1, #10
 190 00ac 0020     		movs	r0, #0
 191 00ae FFF7FEFF 		bl	zf_pit_ms_init
 112:src/main.c    **** 
 113:src/main.c    ****     zf_pit_set_interrupt_priority(PIT_TIM7, INTERRUPT_PRIORITY_LOW); // õĖŁµ¢Łõ╝śÕģłń║¦µ£ĆõĮÄ
 192              		.loc 1 113 5
 193 00b2 0F21     		movs	r1, #15
 194 00b4 0920     		movs	r0, #9
 195 00b6 FFF7FEFF 		bl	zf_pit_set_interrupt_priority
 114:src/main.c    ****     zf_pit_set_interrupt_priority(PIT_TIM6, INTERRUPT_PRIORITY_HIGH);// õĖŁµ¢Łõ╝śÕģłń║¦µ£Ćķ½ś
 196              		.loc 1 114 5
 197 00ba 0021     		movs	r1, #0
 198 00bc 0820     		movs	r0, #8
 199 00be FFF7FEFF 		bl	zf_pit_set_interrupt_priority
 115:src/main.c    ****     zf_pit_set_interrupt_priority(PIT_TIM1, INTERRUPT_PRIORITY_1);   // õĖŁµ¢Łõ╝śÕģłń║¦õĖŁķŚ┤
 200              		.loc 1 115 5
 201 00c2 0121     		movs	r1, #1
 202 00c4 0020     		movs	r0, #0
 203 00c6 FFF7FEFF 		bl	zf_pit_set_interrupt_priority
 116:src/main.c    **** 
 117:src/main.c    ****     zf_delay_ms(1000);
 204              		.loc 1 117 5
 205 00ca 4FF47A70 		mov	r0, #1000
 206 00ce FFF7FEFF 		bl	zf_delay_ms
 207              	.L16:
 118:src/main.c    **** 
 119:src/main.c    ****     for( ; ; )
 120:src/main.c    ****     {
 121:src/main.c    ****         zf_delay_ms(1);
 208              		.loc 1 121 9
 209 00d2 0120     		movs	r0, #1
 210 00d4 FFF7FEFF 		bl	zf_delay_ms
 122:src/main.c    ****         key = dlw_key_scan(0);
 211              		.loc 1 122 15
 212 00d8 0020     		movs	r0, #0
 213 00da FFF7FEFF 		bl	dlw_key_scan
 214 00de 0346     		mov	r3, r0
 215 00e0 1A46     		mov	r2, r3
 216              		.loc 1 122 13
 217 00e2 834B     		ldr	r3, .L18+56
 218 00e4 1A70     		strb	r2, [r3]
 123:src/main.c    ****         remote_ch4 = uart_receiver.channel[3];
 219              		.loc 1 123 20
 220 00e6 794B     		ldr	r3, .L18+20
 221 00e8 DB88     		ldrh	r3, [r3, #6]	@ movhi
 222 00ea ADF81030 		strh	r3, [sp, #16]	@ movhi
 124:src/main.c    ****         if(GL_IMU_Flag == 1)
 223              		.loc 1 124 24
 224 00ee 814B     		ldr	r3, .L18+60
 225 00f0 1B68     		ldr	r3, [r3]
 226              		.loc 1 124 11
 227 00f2 012B     		cmp	r3, #1
 228 00f4 40F0D281 		bne	.L2
 125:src/main.c    ****         {
 126:src/main.c    ****            zf_gpio_set_level(E2, GPIO_HIGH);       // DIRÕ╝ĢĶäÜķ½śńöĄÕ╣│’╝łµŁŻĶĮ¼’╝ē
 229              		.loc 1 126 12
 230 00f8 0121     		movs	r1, #1
 231 00fa 8220     		movs	r0, #130
 232 00fc FFF7FEFF 		bl	zf_gpio_set_level
 127:src/main.c    ****            quaternion_get_euler(&current_angles);//Ķ«Īń«Śµ¼¦µŗēĶ¦Æ
 233              		.loc 1 127 12
 234 0100 7D48     		ldr	r0, .L18+64
 235 0102 FFF7FEFF 		bl	quaternion_get_euler
 128:src/main.c    **** 
 129:src/main.c    ****            ips200_show_string(0, 16*0, "car run:");
 236              		.loc 1 129 12
 237 0106 7D4B     		ldr	r3, .L18+68
 238 0108 0022     		movs	r2, #0
 239 010a 0021     		movs	r1, #0
 240 010c 7C48     		ldr	r0, .L18+72
 241 010e FFF7FEFF 		bl	display_interface_show_string
 130:src/main.c    ****            ips200_show_string(0, 16*1, "next lat/lot:");
 242              		.loc 1 130 12
 243 0112 7C4B     		ldr	r3, .L18+76
 244 0114 1022     		movs	r2, #16
 245 0116 0021     		movs	r1, #0
 246 0118 7948     		ldr	r0, .L18+72
 247 011a FFF7FEFF 		bl	display_interface_show_string
 131:src/main.c    ****            ips200_show_string(0, 16*3, "now lat/lot:");
 248              		.loc 1 131 12
 249 011e 7A4B     		ldr	r3, .L18+80
 250 0120 3022     		movs	r2, #48
 251 0122 0021     		movs	r1, #0
 252 0124 7648     		ldr	r0, .L18+72
 253 0126 FFF7FEFF 		bl	display_interface_show_string
 132:src/main.c    ****            ips200_show_string(0, 16*5, "go angle:");
 254              		.loc 1 132 12
 255 012a 784B     		ldr	r3, .L18+84
 256 012c 5022     		movs	r2, #80
 257 012e 0021     		movs	r1, #0
 258 0130 7348     		ldr	r0, .L18+72
 259 0132 FFF7FEFF 		bl	display_interface_show_string
 133:src/main.c    ****            ips200_show_string(0, 16*7, "virtual_north:");
 260              		.loc 1 133 12
 261 0136 764B     		ldr	r3, .L18+88
 262 0138 7022     		movs	r2, #112
 263 013a 0021     		movs	r1, #0
 264 013c 7048     		ldr	r0, .L18+72
 265 013e FFF7FEFF 		bl	display_interface_show_string
 134:src/main.c    ****            ips200_show_string(0, 16*9, "current_yaw:");
 266              		.loc 1 134 12
 267 0142 744B     		ldr	r3, .L18+92
 268 0144 9022     		movs	r2, #144
 269 0146 0021     		movs	r1, #0
 270 0148 6D48     		ldr	r0, .L18+72
 271 014a FFF7FEFF 		bl	display_interface_show_string
 135:src/main.c    ****            ips200_show_string(0, 16*11, "imu_yaw:");
 272              		.loc 1 135 12
 273 014e 724B     		ldr	r3, .L18+96
 274 0150 B022     		movs	r2, #176
 275 0152 0021     		movs	r1, #0
 276 0154 6A48     		ldr	r0, .L18+72
 277 0156 FFF7FEFF 		bl	display_interface_show_string
 136:src/main.c    **** 
 137:src/main.c    ****            ips200_show_float(50, 16*2, Target_point[0][gnns_sum], 3, 6);    //µśŠńż║Õ«īµĢ┤ń║¼Õ║”ÕØÉ
 278              		.loc 1 137 12
 279 015a 9DF82F30 		ldrb	r3, [sp, #47]	@ zero_extendqisi2
 280 015e 6F4A     		ldr	r2, .L18+100
 281 0160 DB00     		lsls	r3, r3, #3
 282 0162 1344     		add	r3, r3, r2
 283 0164 93ED007B 		vldr.64	d7, [r3]
 284 0168 0623     		movs	r3, #6
 285 016a 0093     		str	r3, [sp]
 286 016c 0323     		movs	r3, #3
 287 016e B0EE470B 		vmov.f64	d0, d7
 288 0172 2022     		movs	r2, #32
 289 0174 3221     		movs	r1, #50
 290 0176 6248     		ldr	r0, .L18+72
 291 0178 FFF7FEFF 		bl	display_interface_show_float
 138:src/main.c    ****            ips200_show_float(150, 16*2, Target_point[1][gnns_sum], 3, 6);   //µśŠńż║Õ«īµĢ┤ń╗ÅÕ║”ÕØÉ
 292              		.loc 1 138 12
 293 017c 9DF82F30 		ldrb	r3, [sp, #47]	@ zero_extendqisi2
 294 0180 664A     		ldr	r2, .L18+100
 295 0182 9633     		adds	r3, r3, #150
 296 0184 DB00     		lsls	r3, r3, #3
 297 0186 1344     		add	r3, r3, r2
 298 0188 93ED007B 		vldr.64	d7, [r3]
 299 018c 0623     		movs	r3, #6
 300 018e 0093     		str	r3, [sp]
 301 0190 0323     		movs	r3, #3
 302 0192 B0EE470B 		vmov.f64	d0, d7
 303 0196 2022     		movs	r2, #32
 304 0198 9621     		movs	r1, #150
 305 019a 5948     		ldr	r0, .L18+72
 306 019c FFF7FEFF 		bl	display_interface_show_float
 139:src/main.c    ****            ips200_show_float(50, 16*4, gnss_info.latitude, 3, 6);           //µśŠńż║ÕĮōÕēŹń║¼Õ║”ÕØÉ
 307              		.loc 1 139 12
 308 01a0 5F4B     		ldr	r3, .L18+104
 309 01a2 93ED067B 		vldr.64	d7, [r3, #24]
 310 01a6 0623     		movs	r3, #6
 311 01a8 0093     		str	r3, [sp]
 312 01aa 0323     		movs	r3, #3
 313 01ac B0EE470B 		vmov.f64	d0, d7
 314 01b0 4022     		movs	r2, #64
 315 01b2 3221     		movs	r1, #50
 316 01b4 5248     		ldr	r0, .L18+72
 317 01b6 FFF7FEFF 		bl	display_interface_show_float
 140:src/main.c    ****            ips200_show_float(150, 16*4, gnss_info.longitude, 3, 6);         //µśŠńż║ÕĮōÕēŹń╗ÅÕ║”ÕØÉ
 318              		.loc 1 140 12
 319 01ba 594B     		ldr	r3, .L18+104
 320 01bc 93ED087B 		vldr.64	d7, [r3, #32]
 321 01c0 0623     		movs	r3, #6
 322 01c2 0093     		str	r3, [sp]
 323 01c4 0323     		movs	r3, #3
 324 01c6 B0EE470B 		vmov.f64	d0, d7
 325 01ca 4022     		movs	r2, #64
 326 01cc 9621     		movs	r1, #150
 327 01ce 4C48     		ldr	r0, .L18+72
 328 01d0 FFF7FEFF 		bl	display_interface_show_float
 141:src/main.c    ****            ips200_show_float(50, 16*6, (current_yaw_180), 3, 6);            //µśŠńż║Ķł¬ÕÉæĶ¦Æ
 329              		.loc 1 141 12
 330 01d4 0623     		movs	r3, #6
 331 01d6 0093     		str	r3, [sp]
 332 01d8 0323     		movs	r3, #3
 333 01da 9DED060B 		vldr.64	d0, [sp, #24]
 334 01de 6022     		movs	r2, #96
 335 01e0 3221     		movs	r1, #50
 336 01e2 4748     		ldr	r0, .L18+72
 337 01e4 FFF7FEFF 		bl	display_interface_show_float
 142:src/main.c    ****            ips200_show_float(50, 16*8, (virtual_north), 3, 6);              //µśŠńż║õ┐«µŁŻĶ¦Æ
 338              		.loc 1 142 12
 339 01e8 4E4B     		ldr	r3, .L18+108
 340 01ea D3ED007A 		vldr.32	s15, [r3]
 341 01ee B7EEE77A 		vcvt.f64.f32	d7, s15
 342 01f2 0623     		movs	r3, #6
 343 01f4 0093     		str	r3, [sp]
 344 01f6 0323     		movs	r3, #3
 345 01f8 B0EE470B 		vmov.f64	d0, d7
 346 01fc 8022     		movs	r2, #128
 347 01fe 3221     		movs	r1, #50
 348 0200 3F48     		ldr	r0, .L18+72
 349 0202 FFF7FEFF 		bl	display_interface_show_float
 143:src/main.c    ****            ips200_show_float(50, 16*10, (current_yaw), 3, 6);               //µśŠńż║ÕĮōÕēŹµ¢╣ÕÉæĶ¦Æ
 350              		.loc 1 143 12
 351 0206 0623     		movs	r3, #6
 352 0208 0093     		str	r3, [sp]
 353 020a 0323     		movs	r3, #3
 354 020c 9DED080B 		vldr.64	d0, [sp, #32]
 355 0210 A022     		movs	r2, #160
 356 0212 3221     		movs	r1, #50
 357 0214 3A48     		ldr	r0, .L18+72
 358 0216 FFF7FEFF 		bl	display_interface_show_float
 144:src/main.c    ****            ips200_show_float(50, 16*12, (gnns_sum), 3, 6);        //µśŠńż║ÕĮōÕēŹIMUµĄŗķćÅĶ¦ÆÕ║”’╝łń
 359              		.loc 1 144 12
 360 021a 9DF82F30 		ldrb	r3, [sp, #47]	@ zero_extendqisi2
 361 021e 07EE903A 		vmov	s15, r3	@ int
 362 0222 B8EE677B 		vcvt.f64.u32	d7, s15
 363 0226 0623     		movs	r3, #6
 364 0228 0093     		str	r3, [sp]
 365 022a 0323     		movs	r3, #3
 366 022c B0EE470B 		vmov.f64	d0, d7
 367 0230 C022     		movs	r2, #192
 368 0232 3221     		movs	r1, #50
 369 0234 3248     		ldr	r0, .L18+72
 370 0236 FFF7FEFF 		bl	display_interface_show_float
 145:src/main.c    ****            //Ķ¦ÆÕ║”ÕÅśµŹó
 146:src/main.c    ****            current_yaw=gnss_get_two_points_azimuth(gnss_info.latitude,gnss_info.longitude,Target_po
 371              		.loc 1 146 24
 372 023a 394B     		ldr	r3, .L18+104
 373 023c 93ED067B 		vldr.64	d7, [r3, #24]
 374 0240 374B     		ldr	r3, .L18+104
 375 0242 93ED086B 		vldr.64	d6, [r3, #32]
 376 0246 9DF82F30 		ldrb	r3, [sp, #47]	@ zero_extendqisi2
 377 024a 344A     		ldr	r2, .L18+100
 378 024c DB00     		lsls	r3, r3, #3
 379 024e 1344     		add	r3, r3, r2
 380 0250 93ED005B 		vldr.64	d5, [r3]
 381 0254 9DF82F30 		ldrb	r3, [sp, #47]	@ zero_extendqisi2
 382 0258 304A     		ldr	r2, .L18+100
 383 025a 9633     		adds	r3, r3, #150
 384 025c DB00     		lsls	r3, r3, #3
 385 025e 1344     		add	r3, r3, r2
 386 0260 93ED004B 		vldr.64	d4, [r3]
 387 0264 B0EE443B 		vmov.f64	d3, d4
 388 0268 B0EE452B 		vmov.f64	d2, d5
 389 026c B0EE461B 		vmov.f64	d1, d6
 390 0270 B0EE470B 		vmov.f64	d0, d7
 391 0274 FFF7FEFF 		bl	gnss_get_two_points_azimuth
 392 0278 8DED080B 		vstr.64	d0, [sp, #32]
 147:src/main.c    ****            current_yaw_180=current_yaw-virtual_north;
 393              		.loc 1 147 39
 394 027c 294B     		ldr	r3, .L18+108
 395 027e D3ED007A 		vldr.32	s15, [r3]
 396 0282 B7EEE77A 		vcvt.f64.f32	d7, s15
 397              		.loc 1 147 27
 398 0286 9DED086B 		vldr.64	d6, [sp, #32]
 399 028a 36EE477B 		vsub.f64	d7, d6, d7
 400 028e 8DED067B 		vstr.64	d7, [sp, #24]
 148:src/main.c    ****            while (current_yaw_180 >= 180.0) current_yaw_180 -= 360.0;
 401              		.loc 1 148 18
 402 0292 07E0     		b	.L3
 403              	.L4:
 404              		.loc 1 148 61 discriminator 2
 405 0294 9DED067B 		vldr.64	d7, [sp, #24]
 406 0298 9FED076B 		vldr.64	d6, .L18
 407 029c 37EE467B 		vsub.f64	d7, d7, d6
 408 02a0 8DED067B 		vstr.64	d7, [sp, #24]
 409              	.L3:
 410              		.loc 1 148 18 discriminator 1
 411 02a4 9DED067B 		vldr.64	d7, [sp, #24]
 412 02a8 9FED056B 		vldr.64	d6, .L18+8
 413 02ac B4EEC67B 		vcmpe.f64	d7, d6
 414 02b0 F1EE10FA 		vmrs	APSR_nzcv, FPSCR
 415 02b4 EEDA     		bge	.L4
 149:src/main.c    ****            while (current_yaw_180 <-180.0) current_yaw_180 += 360.0;
 416              		.loc 1 149 18
 417 02b6 3FE0     		b	.L5
 418              	.L19:
 419              		.align	3
 420              	.L18:
 421 02b8 00000000 		.word	0
 422 02bc 00807640 		.word	1081507840
 423 02c0 00000000 		.word	0
 424 02c4 00806640 		.word	1080459264
 425 02c8 00A3E111 		.word	300000000
 426 02cc 00000000 		.word	uart_receiver
 427 02d0 00410100 		.word	82176
 428 02d4 00000000 		.word	imu_pid
 429 02d8 0000C842 		.word	1120403456
 430 02dc 0000C8C2 		.word	-1027080192
 431 02e0 00000000 		.word	rgb_flicker_handler
 432 02e4 00000000 		.word	imu_data
 433 02e8 00000000 		.word	imu_pit_handler
 434 02ec 00000000 		.word	RTK_pit_handler
 435 02f0 00000000 		.word	key
 436 02f4 00000000 		.word	GL_IMU_Flag
 437 02f8 00000000 		.word	current_angles
 438 02fc 00000000 		.word	.LC0
 439 0300 00000000 		.word	display_interface_default_obj
 440 0304 0C000000 		.word	.LC1
 441 0308 1C000000 		.word	.LC2
 442 030c 2C000000 		.word	.LC3
 443 0310 38000000 		.word	.LC4
 444 0314 48000000 		.word	.LC5
 445 0318 58000000 		.word	.LC6
 446 031c 00000000 		.word	Target_point
 447 0320 00000000 		.word	gnss_info
 448 0324 00000000 		.word	virtual_north
 449              	.L6:
 450              		.loc 1 149 60 discriminator 2
 451 0328 9DED067B 		vldr.64	d7, [sp, #24]
 452 032c 9FED726B 		vldr.64	d6, .L20
 453 0330 37EE067B 		vadd.f64	d7, d7, d6
 454 0334 8DED067B 		vstr.64	d7, [sp, #24]
 455              	.L5:
 456              		.loc 1 149 18 discriminator 1
 457 0338 9DED067B 		vldr.64	d7, [sp, #24]
 458 033c 9FED706B 		vldr.64	d6, .L20+8
 459 0340 B4EEC67B 		vcmpe.f64	d7, d6
 460 0344 F1EE10FA 		vmrs	APSR_nzcv, FPSCR
 461 0348 EED4     		bmi	.L6
 150:src/main.c    ****            imu_pid.setpoint=-(current_yaw_180);
 462              		.loc 1 150 28
 463 034a 9DED067B 		vldr.64	d7, [sp, #24]
 464 034e F7EEC77B 		vcvt.f32.f64	s15, d7
 465 0352 F1EE677A 		vneg.f32	s15, s15
 466 0356 6C4B     		ldr	r3, .L20+16
 467 0358 C3ED037A 		vstr.32	s15, [r3, #12]
 151:src/main.c    ****            //ĶĘØń”╗µŻĆµĄŗ
 152:src/main.c    ****            current_distance=gnss_get_two_points_distance(gnss_info.latitude,gnss_info.longitude,Tar
 468              		.loc 1 152 29
 469 035c 6B4B     		ldr	r3, .L20+20
 470 035e 93ED067B 		vldr.64	d7, [r3, #24]
 471 0362 6A4B     		ldr	r3, .L20+20
 472 0364 93ED086B 		vldr.64	d6, [r3, #32]
 473 0368 9DF82F30 		ldrb	r3, [sp, #47]	@ zero_extendqisi2
 474 036c 684A     		ldr	r2, .L20+24
 475 036e DB00     		lsls	r3, r3, #3
 476 0370 1344     		add	r3, r3, r2
 477 0372 93ED005B 		vldr.64	d5, [r3]
 478 0376 9DF82F30 		ldrb	r3, [sp, #47]	@ zero_extendqisi2
 479 037a 654A     		ldr	r2, .L20+24
 480 037c 9633     		adds	r3, r3, #150
 481 037e DB00     		lsls	r3, r3, #3
 482 0380 1344     		add	r3, r3, r2
 483 0382 93ED004B 		vldr.64	d4, [r3]
 484 0386 B0EE443B 		vmov.f64	d3, d4
 485 038a B0EE452B 		vmov.f64	d2, d5
 486 038e B0EE461B 		vmov.f64	d1, d6
 487 0392 B0EE470B 		vmov.f64	d0, d7
 488 0396 FFF7FEFF 		bl	gnss_get_two_points_distance
 489 039a 8DED020B 		vstr.64	d0, [sp, #8]
 153:src/main.c    ****            pid_output = pid_compute(&imu_pid, current_angles.yaw);
 490              		.loc 1 153 25
 491 039e 5D4B     		ldr	r3, .L20+28
 492 03a0 D3ED027A 		vldr.32	s15, [r3, #8]
 493 03a4 B0EE670A 		vmov.f32	s0, s15
 494 03a8 5748     		ldr	r0, .L20+16
 495 03aa FFF7FEFF 		bl	pid_compute
 496 03ae 8DED050A 		vstr.32	s0, [sp, #20]
 154:src/main.c    ****            dlw_servo_stabilize(pid_output);
 497              		.loc 1 154 12
 498 03b2 9DED050A 		vldr.32	s0, [sp, #20]
 499 03b6 FFF7FEFF 		bl	dlw_servo_stabilize
 155:src/main.c    ****            if((gnns_sum >= 2&&gnns_sum <= 7)&&remote_ch4 != 1792)
 500              		.loc 1 155 14
 501 03ba 9DF82F30 		ldrb	r3, [sp, #47]	@ zero_extendqisi2
 502 03be 012B     		cmp	r3, #1
 503 03c0 0DD9     		bls	.L7
 504              		.loc 1 155 29 discriminator 1
 505 03c2 9DF82F30 		ldrb	r3, [sp, #47]	@ zero_extendqisi2
 506 03c6 072B     		cmp	r3, #7
 507 03c8 09D8     		bhi	.L7
 508              		.loc 1 155 45 discriminator 2
 509 03ca BDF81030 		ldrh	r3, [sp, #16]
 510 03ce B3F5E06F 		cmp	r3, #1792
 511 03d2 04D0     		beq	.L7
 156:src/main.c    ****           {
 157:src/main.c    ****               dlw_set_motor_duty(2100);
 512              		.loc 1 157 15
 513 03d4 40F63400 		movw	r0, #2100
 514 03d8 FFF7FEFF 		bl	dlw_set_motor_duty
 515 03dc 35E0     		b	.L8
 516              	.L7:
 158:src/main.c    ****           }
 159:src/main.c    ****            else if((gnns_sum >= 12&&gnns_sum <= 15)&&remote_ch4 != 1792)
 517              		.loc 1 159 19
 518 03de 9DF82F30 		ldrb	r3, [sp, #47]	@ zero_extendqisi2
 519 03e2 0B2B     		cmp	r3, #11
 520 03e4 0DD9     		bls	.L9
 521              		.loc 1 159 35 discriminator 1
 522 03e6 9DF82F30 		ldrb	r3, [sp, #47]	@ zero_extendqisi2
 523 03ea 0F2B     		cmp	r3, #15
 524 03ec 09D8     		bhi	.L9
 525              		.loc 1 159 52 discriminator 2
 526 03ee BDF81030 		ldrh	r3, [sp, #16]
 527 03f2 B3F5E06F 		cmp	r3, #1792
 528 03f6 04D0     		beq	.L9
 160:src/main.c    ****            {
 161:src/main.c    ****                dlw_set_motor_duty(2000);
 529              		.loc 1 161 16
 530 03f8 4FF4FA60 		mov	r0, #2000
 531 03fc FFF7FEFF 		bl	dlw_set_motor_duty
 532 0400 23E0     		b	.L8
 533              	.L9:
 162:src/main.c    ****            }
 163:src/main.c    ****           else if((gnns_sum >= 8&&gnns_sum <= 10) && remote_ch4 != 1792)
 534              		.loc 1 163 18
 535 0402 9DF82F30 		ldrb	r3, [sp, #47]	@ zero_extendqisi2
 536 0406 072B     		cmp	r3, #7
 537 0408 0DD9     		bls	.L10
 538              		.loc 1 163 33 discriminator 1
 539 040a 9DF82F30 		ldrb	r3, [sp, #47]	@ zero_extendqisi2
 540 040e 0A2B     		cmp	r3, #10
 541 0410 09D8     		bhi	.L10
 542              		.loc 1 163 51 discriminator 2
 543 0412 BDF81030 		ldrh	r3, [sp, #16]
 544 0416 B3F5E06F 		cmp	r3, #1792
 545 041a 04D0     		beq	.L10
 164:src/main.c    ****           {
 165:src/main.c    ****               dlw_set_motor_duty(2100);
 546              		.loc 1 165 15
 547 041c 40F63400 		movw	r0, #2100
 548 0420 FFF7FEFF 		bl	dlw_set_motor_duty
 549 0424 11E0     		b	.L8
 550              	.L10:
 166:src/main.c    ****           }
 167:src/main.c    ****           else if(remote_ch4 != 1792)
 551              		.loc 1 167 18
 552 0426 BDF81030 		ldrh	r3, [sp, #16]
 553 042a B3F5E06F 		cmp	r3, #1792
 554 042e 04D0     		beq	.L11
 168:src/main.c    ****           {
 169:src/main.c    ****               dlw_set_motor_duty(3500);
 555              		.loc 1 169 15
 556 0430 40F6AC50 		movw	r0, #3500
 557 0434 FFF7FEFF 		bl	dlw_set_motor_duty
 558 0438 07E0     		b	.L8
 559              	.L11:
 170:src/main.c    ****           }
 171:src/main.c    ****           else if(remote_ch4 == 1792)
 560              		.loc 1 171 18
 561 043a BDF81030 		ldrh	r3, [sp, #16]
 562 043e B3F5E06F 		cmp	r3, #1792
 563 0442 02D1     		bne	.L8
 172:src/main.c    ****           {
 173:src/main.c    ****               dlw_set_motor_duty(0);
 564              		.loc 1 173 15
 565 0444 0020     		movs	r0, #0
 566 0446 FFF7FEFF 		bl	dlw_set_motor_duty
 567              	.L8:
 174:src/main.c    ****           }
 175:src/main.c    ****           if(current_distance < 1)
 568              		.loc 1 175 13
 569 044a 9DED027B 		vldr.64	d7, [sp, #8]
 570 044e B7EE006B 		vmov.f64	d6, #1.0e+0
 571 0452 B4EEC67B 		vcmpe.f64	d7, d6
 572 0456 F1EE10FA 		vmrs	APSR_nzcv, FPSCR
 573 045a 4CD5     		bpl	.L12
 176:src/main.c    ****           {
 177:src/main.c    ****               if(gnns_sum==0)
 574              		.loc 1 177 17
 575 045c 9DF82F30 		ldrb	r3, [sp, #47]	@ zero_extendqisi2
 576 0460 002B     		cmp	r3, #0
 577 0462 05D1     		bne	.L14
 178:src/main.c    ****               {
 179:src/main.c    ****                   GL_IMU_Flag=0;//stop
 578              		.loc 1 179 30
 579 0464 2C4B     		ldr	r3, .L20+32
 580 0466 0022     		movs	r2, #0
 581 0468 1A60     		str	r2, [r3]
 180:src/main.c    ****                   dlw_set_motor_duty(0);
 582              		.loc 1 180 19
 583 046a 0020     		movs	r0, #0
 584 046c FFF7FEFF 		bl	dlw_set_motor_duty
 585              	.L14:
 181:src/main.c    ****               }
 182:src/main.c    ****               gnns_sum++;
 586              		.loc 1 182 23
 587 0470 9DF82F30 		ldrb	r3, [sp, #47]	@ zero_extendqisi2
 588 0474 0133     		adds	r3, r3, #1
 589 0476 8DF82F30 		strb	r3, [sp, #47]
 183:src/main.c    **** 
 184:src/main.c    ****               if(Target_point[0][gnns_sum] == 0)
 590              		.loc 1 184 33
 591 047a 9DF82F30 		ldrb	r3, [sp, #47]	@ zero_extendqisi2
 592 047e 244A     		ldr	r2, .L20+24
 593 0480 DB00     		lsls	r3, r3, #3
 594 0482 1344     		add	r3, r3, r2
 595 0484 93ED007B 		vldr.64	d7, [r3]
 596              		.loc 1 184 17
 597 0488 B5EE407B 		vcmp.f64	d7, #0
 598 048c F1EE10FA 		vmrs	APSR_nzcv, FPSCR
 599 0490 7FF41FAE 		bne	.L16
 185:src/main.c    ****               {
 186:src/main.c    ****                   gnns_sum=0;
 600              		.loc 1 186 27
 601 0494 0023     		movs	r3, #0
 602 0496 8DF82F30 		strb	r3, [sp, #47]
 603 049a 1AE6     		b	.L16
 604              	.L2:
 187:src/main.c    ****               }
 188:src/main.c    ****           }
 189:src/main.c    **** 
 190:src/main.c    ****         }
 191:src/main.c    ****         else if(GL_IMU_Flag == 0)
 605              		.loc 1 191 29
 606 049c 1E4B     		ldr	r3, .L20+32
 607 049e 1B68     		ldr	r3, [r3]
 608              		.loc 1 191 16
 609 04a0 002B     		cmp	r3, #0
 610 04a2 7FF416AE 		bne	.L16
 192:src/main.c    ****         {
 193:src/main.c    ****               dlw_remote_control_get_data();
 611              		.loc 1 193 15
 612 04a6 FFF7FEFF 		bl	dlw_remote_control_get_data
 194:src/main.c    ****               dlw_servo_control(channel_ptr[0]);                     // Ķ░āńö©õ┐«µö╣ÕÉÄńÜäĶłĄµ£║µÄ¦
 613              		.loc 1 194 15
 614 04aa 1C4B     		ldr	r3, .L20+36
 615 04ac 1B68     		ldr	r3, [r3]
 616 04ae 1B88     		ldrh	r3, [r3]
 617 04b0 1846     		mov	r0, r3
 618 04b2 FFF7FEFF 		bl	dlw_servo_control
 195:src/main.c    ****               dlw_moto_control(channel_ptr[1]);
 619              		.loc 1 195 43
 620 04b6 194B     		ldr	r3, .L20+36
 621 04b8 1B68     		ldr	r3, [r3]
 622 04ba 0233     		adds	r3, r3, #2
 623              		.loc 1 195 15
 624 04bc 1B88     		ldrh	r3, [r3]
 625 04be 1846     		mov	r0, r3
 626 04c0 FFF7FEFF 		bl	dlw_moto_control
 196:src/main.c    ****               ips200_show_string(70, 0, "remote control");
 627              		.loc 1 196 15
 628 04c4 164B     		ldr	r3, .L20+40
 629 04c6 0022     		movs	r2, #0
 630 04c8 4621     		movs	r1, #70
 631 04ca 1648     		ldr	r0, .L20+44
 632 04cc FFF7FEFF 		bl	display_interface_show_string
 197:src/main.c    ****               GL_CRC_state = GL_CRC();
 633              		.loc 1 197 30
 634 04d0 FFF7FEFF 		bl	GL_CRC
 635 04d4 0346     		mov	r3, r0
 636 04d6 8DF81330 		strb	r3, [sp, #19]
 198:src/main.c    ****               if(remote_ch4 == 1792)
 637              		.loc 1 198 17
 638 04da BDF81030 		ldrh	r3, [sp, #16]
 639 04de B3F5E06F 		cmp	r3, #1792
 640 04e2 04D1     		bne	.L15
 199:src/main.c    ****               {
 200:src/main.c    ****                   zf_gpio_set_level(F2, GPIO_LOW);
 641              		.loc 1 200 19
 642 04e4 0021     		movs	r1, #0
 643 04e6 A220     		movs	r0, #162
 644 04e8 FFF7FEFF 		bl	zf_gpio_set_level
 645 04ec F1E5     		b	.L16
 646              	.L15:
 201:src/main.c    **** 
 202:src/main.c    ****               }
 203:src/main.c    ****               else
 204:src/main.c    ****               {
 205:src/main.c    ****                   zf_gpio_set_level(F2, GPIO_HIGH);
 647              		.loc 1 205 19
 648 04ee 0121     		movs	r1, #1
 649 04f0 A220     		movs	r0, #162
 650 04f2 FFF7FEFF 		bl	zf_gpio_set_level
 651              	.L12:
 121:src/main.c    ****         key = dlw_key_scan(0);
 652              		.loc 1 121 9 discriminator 1
 653 04f6 ECE5     		b	.L16
 654              	.L21:
 655              		.align	3
 656              	.L20:
 657 04f8 00000000 		.word	0
 658 04fc 00807640 		.word	1081507840
 659 0500 00000000 		.word	0
 660 0504 008066C0 		.word	-1067024384
 661 0508 00000000 		.word	imu_pid
 662 050c 00000000 		.word	gnss_info
 663 0510 00000000 		.word	Target_point
 664 0514 00000000 		.word	current_angles
 665 0518 00000000 		.word	GL_IMU_Flag
 666 051c 00000000 		.word	channel_ptr
 667 0520 64000000 		.word	.LC7
 668 0524 00000000 		.word	display_interface_default_obj
 669              		.cfi_endproc
 670              	.LFE482:
 672              		.section	.text.imu_pit_handler,"ax",%progbits
 673              		.align	1
 674              		.p2align 4,,15
 675              		.global	imu_pit_handler
 676              		.syntax unified
 677              		.thumb
 678              		.thumb_func
 680              	imu_pit_handler:
 681              	.LFB483:
 206:src/main.c    ****               }
 207:src/main.c    ****         }
 208:src/main.c    ****     }
 209:src/main.c    **** }
 210:src/main.c    **** 
 211:src/main.c    **** //-------------------------------------------------------------------------------------------------
 212:src/main.c    **** // ÕćĮµĢ░ń«Ćõ╗ŗ     imuÕæ©µ£¤õĖŁµ¢ŁĶ¦”ÕÅæÕćĮµĢ░
 213:src/main.c    **** // ÕÅéµĢ░Ķ»┤µśÄ     event           õ║ŗõ╗Č
 214:src/main.c    **** // ÕÅéµĢ░Ķ»┤µśÄ     *ptr            ńö©µłĘõ╝ĀÕÅéÕÅźµ¤ä
 215:src/main.c    **** // Ķ┐öÕø×ÕÅéµĢ░     void            µŚĀĶ┐öÕø×ÕĆ╝
 216:src/main.c    **** // õĮ┐ńö©ńż║õŠŗ
 217:src/main.c    **** // Õżćµ│©õ┐Īµü»
 218:src/main.c    **** //-------------------------------------------------------------------------------------------------
 219:src/main.c    **** void imu_pit_handler (uint32 event, void *ptr)
 220:src/main.c    **** {
 682              		.loc 1 220 1
 683              		.cfi_startproc
 684              		@ args = 0, pretend = 0, frame = 40
 685              		@ frame_needed = 0, uses_anonymous_args = 0
 686 0000 00B5     		push	{lr}
 687              		.cfi_def_cfa_offset 4
 688              		.cfi_offset 14, -4
 689 0002 8BB0     		sub	sp, sp, #44
 690              		.cfi_def_cfa_offset 48
 691 0004 0190     		str	r0, [sp, #4]
 692 0006 0091     		str	r1, [sp]
 221:src/main.c    ****     (void)event;
 222:src/main.c    ****     imu660rb_measurement_data_struct *data_buffer       = (imu660rb_measurement_data_struct *)ptr;
 693              		.loc 1 222 39
 694 0008 009B     		ldr	r3, [sp]
 695 000a 0993     		str	r3, [sp, #36]
 223:src/main.c    **** //    imu660rb_physical_data_struct *physical_data_buffer = (imu660rb_physical_data_struct *)imu_ph
 224:src/main.c    ****     imu660rb_get_acc (data_buffer + 0);
 696              		.loc 1 224 5
 697 000c 0998     		ldr	r0, [sp, #36]
 698 000e FFF7FEFF 		bl	imu660rb_get_acc
 225:src/main.c    ****     imu660rb_get_gyro(data_buffer + 1);
 699              		.loc 1 225 5
 700 0012 099B     		ldr	r3, [sp, #36]
 701 0014 0633     		adds	r3, r3, #6
 702 0016 1846     		mov	r0, r3
 703 0018 FFF7FEFF 		bl	imu660rb_get_gyro
 226:src/main.c    **** 
 227:src/main.c    ****     if(calibration_done)
 704              		.loc 1 227 8
 705 001c 4F4B     		ldr	r3, .L24
 706 001e 1B78     		ldrb	r3, [r3]	@ zero_extendqisi2
 707              		.loc 1 227 7
 708 0020 002B     		cmp	r3, #0
 709 0022 2CD0     		beq	.L23
 228:src/main.c    ****     {
 229:src/main.c    ****         data_buffer[1].x -= gyro_bias_x;
 710              		.loc 1 229 26
 711 0024 099B     		ldr	r3, [sp, #36]
 712 0026 0633     		adds	r3, r3, #6
 713 0028 B3F90030 		ldrsh	r3, [r3]
 714 002c 9AB2     		uxth	r2, r3
 715 002e 4C4B     		ldr	r3, .L24+4
 716 0030 B3F90030 		ldrsh	r3, [r3]
 717 0034 9BB2     		uxth	r3, r3
 718 0036 D31A     		subs	r3, r2, r3
 719 0038 9AB2     		uxth	r2, r3
 720 003a 099B     		ldr	r3, [sp, #36]
 721 003c 0633     		adds	r3, r3, #6
 722 003e 12B2     		sxth	r2, r2
 723 0040 1A80     		strh	r2, [r3]	@ movhi
 230:src/main.c    ****         data_buffer[1].y -= gyro_bias_y;
 724              		.loc 1 230 26
 725 0042 099B     		ldr	r3, [sp, #36]
 726 0044 0633     		adds	r3, r3, #6
 727 0046 B3F90230 		ldrsh	r3, [r3, #2]
 728 004a 9AB2     		uxth	r2, r3
 729 004c 454B     		ldr	r3, .L24+8
 730 004e B3F90030 		ldrsh	r3, [r3]
 731 0052 9BB2     		uxth	r3, r3
 732 0054 D31A     		subs	r3, r2, r3
 733 0056 9AB2     		uxth	r2, r3
 734 0058 099B     		ldr	r3, [sp, #36]
 735 005a 0633     		adds	r3, r3, #6
 736 005c 12B2     		sxth	r2, r2
 737 005e 5A80     		strh	r2, [r3, #2]	@ movhi
 231:src/main.c    ****         data_buffer[1].z -= gyro_bias_z;
 738              		.loc 1 231 26
 739 0060 099B     		ldr	r3, [sp, #36]
 740 0062 0633     		adds	r3, r3, #6
 741 0064 B3F90430 		ldrsh	r3, [r3, #4]
 742 0068 9AB2     		uxth	r2, r3
 743 006a 3F4B     		ldr	r3, .L24+12
 744 006c B3F90030 		ldrsh	r3, [r3]
 745 0070 9BB2     		uxth	r3, r3
 746 0072 D31A     		subs	r3, r2, r3
 747 0074 9AB2     		uxth	r2, r3
 748 0076 099B     		ldr	r3, [sp, #36]
 749 0078 0633     		adds	r3, r3, #6
 750 007a 12B2     		sxth	r2, r2
 751 007c 9A80     		strh	r2, [r3, #4]	@ movhi
 752              	.L23:
 232:src/main.c    ****     }
 233:src/main.c    **** 
 234:src/main.c    ****     data_buffer[1].x = data_buffer[1].x / 10 * 10;
 753              		.loc 1 234 35
 754 007e 099B     		ldr	r3, [sp, #36]
 755 0080 0633     		adds	r3, r3, #6
 756              		.loc 1 234 38
 757 0082 B3F90030 		ldrsh	r3, [r3]
 758              		.loc 1 234 46
 759 0086 394A     		ldr	r2, .L24+16
 760 0088 82FB0312 		smull	r1, r2, r2, r3
 761 008c 9210     		asrs	r2, r2, #2
 762 008e DB17     		asrs	r3, r3, #31
 763 0090 D31A     		subs	r3, r2, r3
 764 0092 1BB2     		sxth	r3, r3
 765 0094 9BB2     		uxth	r3, r3
 766 0096 1A46     		mov	r2, r3	@ movhi
 767 0098 9200     		lsls	r2, r2, #2
 768 009a 1344     		add	r3, r3, r2
 769 009c 5B00     		lsls	r3, r3, #1
 770 009e 9AB2     		uxth	r2, r3
 771              		.loc 1 234 16
 772 00a0 099B     		ldr	r3, [sp, #36]
 773 00a2 0633     		adds	r3, r3, #6
 774              		.loc 1 234 46
 775 00a4 12B2     		sxth	r2, r2
 776              		.loc 1 234 22
 777 00a6 1A80     		strh	r2, [r3]	@ movhi
 235:src/main.c    ****     data_buffer[1].y = data_buffer[1].y / 100 * 100;
 778              		.loc 1 235 35
 779 00a8 099B     		ldr	r3, [sp, #36]
 780 00aa 0633     		adds	r3, r3, #6
 781              		.loc 1 235 38
 782 00ac B3F90230 		ldrsh	r3, [r3, #2]
 783              		.loc 1 235 47
 784 00b0 2F4A     		ldr	r2, .L24+20
 785 00b2 82FB0312 		smull	r1, r2, r2, r3
 786 00b6 5211     		asrs	r2, r2, #5
 787 00b8 DB17     		asrs	r3, r3, #31
 788 00ba D31A     		subs	r3, r2, r3
 789 00bc 1BB2     		sxth	r3, r3
 790 00be 9BB2     		uxth	r3, r3
 791 00c0 1A46     		mov	r2, r3	@ movhi
 792 00c2 9200     		lsls	r2, r2, #2
 793 00c4 1344     		add	r3, r3, r2
 794 00c6 1A46     		mov	r2, r3	@ movhi
 795 00c8 9100     		lsls	r1, r2, #2
 796 00ca 1A46     		mov	r2, r3	@ movhi
 797 00cc 0B46     		mov	r3, r1	@ movhi
 798 00ce 1344     		add	r3, r3, r2
 799 00d0 9B00     		lsls	r3, r3, #2
 800 00d2 9AB2     		uxth	r2, r3
 801              		.loc 1 235 16
 802 00d4 099B     		ldr	r3, [sp, #36]
 803 00d6 0633     		adds	r3, r3, #6
 804              		.loc 1 235 47
 805 00d8 12B2     		sxth	r2, r2
 806              		.loc 1 235 22
 807 00da 5A80     		strh	r2, [r3, #2]	@ movhi
 236:src/main.c    ****     data_buffer[1].z = data_buffer[1].z / 10 * 10;      // ń▓Śń│Öµ╗żµ│ó
 808              		.loc 1 236 35
 809 00dc 099B     		ldr	r3, [sp, #36]
 810 00de 0633     		adds	r3, r3, #6
 811              		.loc 1 236 38
 812 00e0 B3F90430 		ldrsh	r3, [r3, #4]
 813              		.loc 1 236 46
 814 00e4 214A     		ldr	r2, .L24+16
 815 00e6 82FB0312 		smull	r1, r2, r2, r3
 816 00ea 9210     		asrs	r2, r2, #2
 817 00ec DB17     		asrs	r3, r3, #31
 818 00ee D31A     		subs	r3, r2, r3
 819 00f0 1BB2     		sxth	r3, r3
 820 00f2 9BB2     		uxth	r3, r3
 821 00f4 1A46     		mov	r2, r3	@ movhi
 822 00f6 9200     		lsls	r2, r2, #2
 823 00f8 1344     		add	r3, r3, r2
 824 00fa 5B00     		lsls	r3, r3, #1
 825 00fc 9AB2     		uxth	r2, r3
 826              		.loc 1 236 16
 827 00fe 099B     		ldr	r3, [sp, #36]
 828 0100 0633     		adds	r3, r3, #6
 829              		.loc 1 236 46
 830 0102 12B2     		sxth	r2, r2
 831              		.loc 1 236 22
 832 0104 9A80     		strh	r2, [r3, #4]	@ movhi
 237:src/main.c    **** 
 238:src/main.c    ****     imu660rb_physical_data_struct acc_phy, gyro_phy;
 239:src/main.c    **** 
 240:src/main.c    ****     // ĶÄĘÕÅ¢ńē®ńÉåķćÅµĢ░µŹ«’╝łÕĘ▓ÕÄ╗ķÖżķøČÕüÅ’╝ē
 241:src/main.c    ****     imu660rb_get_physical_acc((imu660rb_measurement_data_struct *)ptr, IMU_ACC_RANGE_SGN_8G, &acc_p
 833              		.loc 1 241 5
 834 0106 06AB     		add	r3, sp, #24
 835 0108 1A46     		mov	r2, r3
 836 010a 0421     		movs	r1, #4
 837 010c 0098     		ldr	r0, [sp]
 838 010e FFF7FEFF 		bl	imu660rb_get_physical_acc
 242:src/main.c    ****     imu660rb_get_physical_gyro((imu660rb_measurement_data_struct *)ptr + 1, IMU_GYRO_RANGE_SGN_2000
 839              		.loc 1 242 5
 840 0112 009B     		ldr	r3, [sp]
 841 0114 0633     		adds	r3, r3, #6
 842 0116 03AA     		add	r2, sp, #12
 843 0118 0621     		movs	r1, #6
 844 011a 1846     		mov	r0, r3
 845 011c FFF7FEFF 		bl	imu660rb_get_physical_gyro
 243:src/main.c    **** 
 244:src/main.c    ****     // õ╝ĀÕģźÕøøÕģāµĢ░ń«Śµ│Ģ
 245:src/main.c    ****     quaternion_update(
 846              		.loc 1 245 5
 847 0120 DDED067A 		vldr.32	s15, [sp, #24]
 848 0124 9DED077A 		vldr.32	s14, [sp, #28]
 849 0128 DDED086A 		vldr.32	s13, [sp, #32]
 850 012c 9DED036A 		vldr.32	s12, [sp, #12]
 851 0130 DDED045A 		vldr.32	s11, [sp, #16]
 852 0134 9DED055A 		vldr.32	s10, [sp, #20]
 853 0138 F0EE452A 		vmov.f32	s5, s10
 854 013c B0EE652A 		vmov.f32	s4, s11
 855 0140 F0EE461A 		vmov.f32	s3, s12
 856 0144 B0EE661A 		vmov.f32	s2, s13
 857 0148 F0EE470A 		vmov.f32	s1, s14
 858 014c B0EE670A 		vmov.f32	s0, s15
 859 0150 FFF7FEFF 		bl	quaternion_update
 246:src/main.c    ****         acc_phy.x, acc_phy.y, acc_phy.z,
 247:src/main.c    ****         gyro_phy.x, gyro_phy.y, gyro_phy.z
 248:src/main.c    ****     );
 249:src/main.c    **** }
 860              		.loc 1 249 1
 861 0154 00BF     		nop
 862 0156 0BB0     		add	sp, sp, #44
 863              		.cfi_def_cfa_offset 4
 864              		@ sp needed
 865 0158 5DF804FB 		ldr	pc, [sp], #4
 866              	.L25:
 867              		.align	2
 868              	.L24:
 869 015c 00000000 		.word	calibration_done
 870 0160 00000000 		.word	gyro_bias_x
 871 0164 00000000 		.word	gyro_bias_y
 872 0168 00000000 		.word	gyro_bias_z
 873 016c 67666666 		.word	1717986919
 874 0170 1F85EB51 		.word	1374389535
 875              		.cfi_endproc
 876              	.LFE483:
 878              		.section	.text.RTK_pit_handler,"ax",%progbits
 879              		.align	1
 880              		.p2align 4,,15
 881              		.global	RTK_pit_handler
 882              		.syntax unified
 883              		.thumb
 884              		.thumb_func
 886              	RTK_pit_handler:
 887              	.LFB484:
 250:src/main.c    **** 
 251:src/main.c    **** //-------------------------------------------------------------------------------------------------
 252:src/main.c    **** // ÕćĮµĢ░ń«Ćõ╗ŗ     RTKÕæ©µ£¤õĖŁµ¢ŁĶ¦”ÕÅæÕćĮµĢ░
 253:src/main.c    **** // ÕÅéµĢ░Ķ»┤µśÄ     event           õ║ŗõ╗Č
 254:src/main.c    **** // ÕÅéµĢ░Ķ»┤µśÄ     *ptr            ńö©µłĘõ╝ĀÕÅéÕÅźµ¤ä
 255:src/main.c    **** // Ķ┐öÕø×ÕÅéµĢ░     void            µŚĀĶ┐öÕø×ÕĆ╝
 256:src/main.c    **** // õĮ┐ńö©ńż║õŠŗ
 257:src/main.c    **** // Õżćµ│©õ┐Īµü»
 258:src/main.c    **** //-------------------------------------------------------------------------------------------------
 259:src/main.c    **** void RTK_pit_handler(uint32 event, void *ptr)
 260:src/main.c    **** {
 888              		.loc 1 260 1
 889              		.cfi_startproc
 890              		@ args = 0, pretend = 0, frame = 8
 891              		@ frame_needed = 0, uses_anonymous_args = 0
 892 0000 00B5     		push	{lr}
 893              		.cfi_def_cfa_offset 4
 894              		.cfi_offset 14, -4
 895 0002 83B0     		sub	sp, sp, #12
 896              		.cfi_def_cfa_offset 16
 897 0004 0190     		str	r0, [sp, #4]
 898 0006 0091     		str	r1, [sp]
 261:src/main.c    ****     (void)event;
 262:src/main.c    ****     (void)ptr;
 263:src/main.c    ****     gnss_data_parse();
 899              		.loc 1 263 5
 900 0008 FFF7FEFF 		bl	gnss_data_parse
 264:src/main.c    **** }
 901              		.loc 1 264 1
 902 000c 00BF     		nop
 903 000e 03B0     		add	sp, sp, #12
 904              		.cfi_def_cfa_offset 4
 905              		@ sp needed
 906 0010 5DF804FB 		ldr	pc, [sp], #4
 907              		.cfi_endproc
 908              	.LFE484:
 910              		.text
 911              	.Letext0:
 912              		.file 2 "c:\\stellarstudio-7.0\\sdks\\tools-1.4.0\\toolchain\\arm\\mingw64_nt\\10.3-2021.10\\arm-n
 913              		.file 3 "c:\\stellarstudio-7.0\\sdks\\tools-1.4.0\\toolchain\\arm\\mingw64_nt\\10.3-2021.10\\arm-n
 914              		.file 4 "libraries/zf_common/zf_common_typedef.h"
 915              		.file 5 "C:/StellarStudio-7.0/SDKS/StellarESDK-1.7.0/Modules/Platform/MCU/include/sr5e1/sr5e1xx.h"
 916              		.file 6 "libraries/zf_driver/zf_driver_gpio.h"
 917              		.file 7 "libraries/zf_driver/zf_driver_adc.h"
 918              		.file 8 "libraries/zf_driver/zf_driver_can.h"
 919              		.file 9 "libraries/zf_driver/zf_driver_encoder.h"
 920              		.file 10 "libraries/zf_driver/zf_driver_exti.h"
 921              		.file 11 "libraries/zf_driver/zf_driver_hrtim.h"
 922              		.file 12 "libraries/zf_driver/zf_driver_interrupt.h"
 923              		.file 13 "libraries/zf_driver/zf_driver_pit.h"
 924              		.file 14 "libraries/zf_driver/zf_driver_pwm.h"
 925              		.file 15 "libraries/zf_driver/zf_driver_spi.h"
 926              		.file 16 "libraries/zf_driver/zf_driver_system.h"
 927              		.file 17 "libraries/zf_driver/zf_driver_uart.h"
 928              		.file 18 "libraries/zf_device/zf_device_imu_interface.h"
 929              		.file 19 "libraries/zf_device/zf_device_imu660rb.h"
 930              		.file 20 "libraries/zf_device/zf_device_wireless_interface.h"
 931              		.file 21 "libraries/zf_device/zf_device_display_interface.h"
 932              		.file 22 "libraries/zf_device/zf_device_ips200.h"
 933              		.file 23 "libraries/zf_device/zf_device_gnss.h"
 934              		.file 24 "libraries/zf_device/zf_device_uart_receiver.h"
 935              		.file 25 "user_code/quaternion.h"
 936              		.file 26 "user_code/pid.h"
 937              		.file 27 "user_code/GPS.h"