   1              		.cpu cortex-m7
   2              		.arch armv7e-m
   3              		.fpu fpv5-d16
   4              		.eabi_attribute 28, 1
   5              		.eabi_attribute 20, 1
   6              		.eabi_attribute 21, 1
   7              		.eabi_attribute 23, 3
   8              		.eabi_attribute 24, 1
   9              		.eabi_attribute 25, 1
  10              		.eabi_attribute 26, 1
  11              		.eabi_attribute 30, 6
  12              		.eabi_attribute 34, 1
  13              		.eabi_attribute 18, 4
  14              		.file	"nfc_usart.c"
  15              		.text
  16              	.Ltext0:
  17              		.cfi_sections	.debug_frame
  18              		.global	get_data_len
  19              		.section	.data.get_data_len,"aw"
  20              		.align	2
  23              	get_data_len:
  24 0000 14000000 		.word	20
  25              		.global	get_data
  26              		.section	.bss.get_data,"aw",%nobits
  27              		.align	2
  30              	get_data:
  31 0000 00000000 		.space	20
  31      00000000 
  31      00000000 
  31      00000000 
  31      00000000 
  32              		.global	fifo_buffer
  33              		.section	.bss.fifo_buffer,"aw",%nobits
  34              		.align	2
  37              	fifo_buffer:
  38 0000 00000000 		.space	20
  38      00000000 
  38      00000000 
  38      00000000 
  38      00000000 
  39              		.global	left
  40              		.section	.bss.left,"aw",%nobits
  43              	left:
  44 0000 00       		.space	1
  45              		.global	right
  46              		.section	.bss.right,"aw",%nobits
  49              	right:
  50 0000 00       		.space	1
  51              		.global	uart_fifo
  52              		.section	.bss.uart_fifo,"aw",%nobits
  53              		.align	2
  56              	uart_fifo:
  57 0000 00000000 		.space	20
  57      00000000 
  57      00000000 
  57      00000000 
  57      00000000 
  58              		.section	.text.dlw_nfc_usart_init,"ax",%progbits
  59              		.align	1
  60              		.p2align 4,,15
  61              		.global	dlw_nfc_usart_init
  62              		.syntax unified
  63              		.thumb
  64              		.thumb_func
  66              	dlw_nfc_usart_init:
  67              	.LFB482:
  68              		.file 1 "user_code/nfc_usart.c"
   1:user_code/nfc_usart.c **** #include "nfc_usart.h"
   2:user_code/nfc_usart.c **** /*
   3:user_code/nfc_usart.c ****  * nfc_usart.c
   4:user_code/nfc_usart.c ****  *
   5:user_code/nfc_usart.c ****  *  Created on: 2025年8月8日
   6:user_code/nfc_usart.c ****  *      Author: 27962
   7:user_code/nfc_usart.c ****  */
   8:user_code/nfc_usart.c **** uint32 get_data_len = 20;
   9:user_code/nfc_usart.c **** uint8_t   get_data[20];
  10:user_code/nfc_usart.c **** uint8_t   fifo_buffer[20];
  11:user_code/nfc_usart.c **** uint8_t left = 0;
  12:user_code/nfc_usart.c **** uint8_t right = 0;
  13:user_code/nfc_usart.c **** zf_fifo_obj_struct uart_fifo;
  14:user_code/nfc_usart.c **** extern int GL_IMU_Flag;
  15:user_code/nfc_usart.c **** extern eulerangles    current_angles;                                  // 当前欧拉角
  16:user_code/nfc_usart.c **** void dlw_nfc_usart_init(void)
  17:user_code/nfc_usart.c **** {
  69              		.loc 1 17 1
  70              		.cfi_startproc
  71              		@ args = 0, pretend = 0, frame = 0
  72              		@ frame_needed = 0, uses_anonymous_args = 0
  73 0000 08B5     		push	{r3, lr}
  74              		.cfi_def_cfa_offset 8
  75              		.cfi_offset 3, -8
  76              		.cfi_offset 14, -4
  18:user_code/nfc_usart.c ****     zf_fifo_init(&uart_fifo, FIFO_DATA_8BIT, fifo_buffer, sizeof(fifo_buffer));
  77              		.loc 1 18 5
  78 0002 1423     		movs	r3, #20
  79 0004 034A     		ldr	r2, .L2
  80 0006 0121     		movs	r1, #1
  81 0008 0348     		ldr	r0, .L2+4
  82 000a FFF7FEFF 		bl	zf_fifo_init
  19:user_code/nfc_usart.c **** //    zf_uart_init(UART_2, 115200, UART2_TX_D8, UART2_RX_D7);
  20:user_code/nfc_usart.c **** //    zf_uart_set_interrupt_callback(UART_2, NFC_uart_handler, &uart_fifo);
  21:user_code/nfc_usart.c **** //    zf_uart_set_interrupt_config(UART_2, UART_INTERRUPT_CONFIG_RX_ENABLE);
  22:user_code/nfc_usart.c **** }
  83              		.loc 1 22 1
  84 000e 00BF     		nop
  85 0010 08BD     		pop	{r3, pc}
  86              	.L3:
  87 0012 00BF     		.align	2
  88              	.L2:
  89 0014 00000000 		.word	fifo_buffer
  90 0018 00000000 		.word	uart_fifo
  91              		.cfi_endproc
  92              	.LFE482:
  94              		.section	.rodata
  95              		.align	2
  96              	.LC0:
  97 0000 6C656674 		.ascii	"left\000"
  97      00
  98 0005 000000   		.align	2
  99              	.LC1:
 100 0008 72696768 		.ascii	"right\000"
 100      7400
 101              		.section	.text.dlw_nfc_usartdata_process,"ax",%progbits
 102              		.align	1
 103              		.p2align 4,,15
 104              		.global	dlw_nfc_usartdata_process
 105              		.syntax unified
 106              		.thumb
 107              		.thumb_func
 109              	dlw_nfc_usartdata_process:
 110              	.LFB483:
  23:user_code/nfc_usart.c **** void dlw_nfc_usartdata_process(void)
  24:user_code/nfc_usart.c **** {
 111              		.loc 1 24 1
 112              		.cfi_startproc
 113              		@ args = 0, pretend = 0, frame = 0
 114              		@ frame_needed = 0, uses_anonymous_args = 0
 115 0000 08B5     		push	{r3, lr}
 116              		.cfi_def_cfa_offset 8
 117              		.cfi_offset 3, -8
 118              		.cfi_offset 14, -4
  25:user_code/nfc_usart.c **** //	zf_fifo_read_buffer(&uart_fifo, get_data, &get_data_len, FIFO_READ_WITH_CLEAN);
  26:user_code/nfc_usart.c **** 	get_data_len =  debug_read_ring_buffer(get_data, 20);
 119              		.loc 1 26 18
 120 0002 1421     		movs	r1, #20
 121 0004 8248     		ldr	r0, .L17
 122 0006 FFF7FEFF 		bl	debug_read_ring_buffer
 123 000a 0346     		mov	r3, r0
 124              		.loc 1 26 15
 125 000c 814A     		ldr	r2, .L17+4
 126 000e 1360     		str	r3, [r2]
  27:user_code/nfc_usart.c **** 	if (get_data_len)
 127              		.loc 1 27 6
 128 0010 804B     		ldr	r3, .L17+4
 129 0012 1B68     		ldr	r3, [r3]
 130              		.loc 1 27 5
 131 0014 002B     		cmp	r3, #0
 132 0016 06D0     		beq	.L5
  28:user_code/nfc_usart.c **** 	{
  29:user_code/nfc_usart.c **** 		debug_uart_write_buffer(get_data, &get_data_len);
 133              		.loc 1 29 3
 134 0018 7E49     		ldr	r1, .L17+4
 135 001a 7D48     		ldr	r0, .L17
 136 001c FFF7FEFF 		bl	debug_uart_write_buffer
  30:user_code/nfc_usart.c **** 		get_data_len = 0;
 137              		.loc 1 30 16
 138 0020 7C4B     		ldr	r3, .L17+4
 139 0022 0022     		movs	r2, #0
 140 0024 1A60     		str	r2, [r3]
 141              	.L5:
  31:user_code/nfc_usart.c **** 	}
  32:user_code/nfc_usart.c **** 
  33:user_code/nfc_usart.c **** 	if(strstr((const char*)get_data,"left") != NULL)
 142              		.loc 1 33 5
 143 0026 7C49     		ldr	r1, .L17+8
 144 0028 7948     		ldr	r0, .L17
 145 002a FFF7FEFF 		bl	strstr
 146 002e 0346     		mov	r3, r0
 147              		.loc 1 33 4
 148 0030 002B     		cmp	r3, #0
 149 0032 71D0     		beq	.L6
  34:user_code/nfc_usart.c **** 	{
  35:user_code/nfc_usart.c **** 		left = 1;
 150              		.loc 1 35 8
 151 0034 794B     		ldr	r3, .L17+12
 152 0036 0122     		movs	r2, #1
 153 0038 1A70     		strb	r2, [r3]
  36:user_code/nfc_usart.c **** 		right = 0;
 154              		.loc 1 36 9
 155 003a 794B     		ldr	r3, .L17+16
 156 003c 0022     		movs	r2, #0
 157 003e 1A70     		strb	r2, [r3]
  37:user_code/nfc_usart.c **** 		GPS_Flash_use();
 158              		.loc 1 37 3
 159 0040 FFF7FEFF 		bl	GPS_Flash_use
  38:user_code/nfc_usart.c ****         ips200_clear();
 160              		.loc 1 38 9
 161 0044 7748     		ldr	r0, .L17+20
 162 0046 FFF7FEFF 		bl	display_interface_clear
  39:user_code/nfc_usart.c **** 		zf_delay_ms(5000);
 163              		.loc 1 39 3
 164 004a 41F28830 		movw	r0, #5000
 165 004e FFF7FEFF 		bl	zf_delay_ms
  40:user_code/nfc_usart.c **** 		virtual_north=gnss_get_two_points_azimuth(gnss_info.latitude,gnss_info.longitude,Target_point[0][
 166              		.loc 1 40 17
 167 0052 754B     		ldr	r3, .L17+24
 168 0054 93ED067B 		vldr.64	d7, [r3, #24]
 169 0058 734B     		ldr	r3, .L17+24
 170 005a 93ED086B 		vldr.64	d6, [r3, #32]
 171 005e 734B     		ldr	r3, .L17+28
 172 0060 93ED025B 		vldr.64	d5, [r3, #8]
 173 0064 714B     		ldr	r3, .L17+28
 174 0066 03F59863 		add	r3, r3, #1216
 175 006a 13ED024B 		vldr.64	d4, [r3, #-8]
 176 006e B0EE443B 		vmov.f64	d3, d4
 177 0072 B0EE452B 		vmov.f64	d2, d5
 178 0076 B0EE461B 		vmov.f64	d1, d6
 179 007a B0EE470B 		vmov.f64	d0, d7
 180 007e FFF7FEFF 		bl	gnss_get_two_points_azimuth
 181 0082 B0EE407B 		vmov.f64	d7, d0
 182 0086 F7EEC77B 		vcvt.f32.f64	s15, d7
 183              		.loc 1 40 16
 184 008a 694B     		ldr	r3, .L17+32
 185 008c C3ED007A 		vstr.32	s15, [r3]
  41:user_code/nfc_usart.c **** 		initial_imu_heading=current_angles.yaw;
 186              		.loc 1 41 37
 187 0090 684B     		ldr	r3, .L17+36
 188 0092 D3ED027A 		vldr.32	s15, [r3, #8]
 189 0096 B7EEE77A 		vcvt.f64.f32	d7, s15
 190              		.loc 1 41 22
 191 009a 674B     		ldr	r3, .L17+40
 192 009c 83ED007B 		vstr.64	d7, [r3]
  42:user_code/nfc_usart.c **** 		virtual_north=virtual_north-initial_imu_heading;
 193              		.loc 1 42 30
 194 00a0 634B     		ldr	r3, .L17+32
 195 00a2 D3ED007A 		vldr.32	s15, [r3]
 196 00a6 B7EEE76A 		vcvt.f64.f32	d6, s15
 197 00aa 634B     		ldr	r3, .L17+40
 198 00ac 93ED007B 		vldr.64	d7, [r3]
 199 00b0 36EE477B 		vsub.f64	d7, d6, d7
 200 00b4 F7EEC77B 		vcvt.f32.f64	s15, d7
 201              		.loc 1 42 16
 202 00b8 5D4B     		ldr	r3, .L17+32
 203 00ba C3ED007A 		vstr.32	s15, [r3]
  43:user_code/nfc_usart.c **** 		// 标准化偏移量
  44:user_code/nfc_usart.c **** 		while (virtual_north >= 180.0) virtual_north -= 360.0;
 204              		.loc 1 44 9
 205 00be 09E0     		b	.L7
 206              	.L8:
 207              		.loc 1 44 48 discriminator 2
 208 00c0 5B4B     		ldr	r3, .L17+32
 209 00c2 D3ED007A 		vldr.32	s15, [r3]
 210 00c6 9FED5D7A 		vldr.32	s14, .L17+44
 211 00ca 77EEC77A 		vsub.f32	s15, s15, s14
 212 00ce 584B     		ldr	r3, .L17+32
 213 00d0 C3ED007A 		vstr.32	s15, [r3]
 214              	.L7:
 215              		.loc 1 44 24 discriminator 1
 216 00d4 564B     		ldr	r3, .L17+32
 217 00d6 D3ED007A 		vldr.32	s15, [r3]
 218              		.loc 1 44 9 discriminator 1
 219 00da 9FED597A 		vldr.32	s14, .L17+48
 220 00de F4EEC77A 		vcmpe.f32	s15, s14
 221 00e2 F1EE10FA 		vmrs	APSR_nzcv, FPSCR
 222 00e6 EBDA     		bge	.L8
  45:user_code/nfc_usart.c **** 		while (virtual_north <-180.0) virtual_north += 360.0;
 223              		.loc 1 45 9
 224 00e8 09E0     		b	.L9
 225              	.L10:
 226              		.loc 1 45 47 discriminator 2
 227 00ea 514B     		ldr	r3, .L17+32
 228 00ec D3ED007A 		vldr.32	s15, [r3]
 229 00f0 9FED527A 		vldr.32	s14, .L17+44
 230 00f4 77EE877A 		vadd.f32	s15, s15, s14
 231 00f8 4D4B     		ldr	r3, .L17+32
 232 00fa C3ED007A 		vstr.32	s15, [r3]
 233              	.L9:
 234              		.loc 1 45 24 discriminator 1
 235 00fe 4C4B     		ldr	r3, .L17+32
 236 0100 D3ED007A 		vldr.32	s15, [r3]
 237              		.loc 1 45 9 discriminator 1
 238 0104 9FED4F7A 		vldr.32	s14, .L17+52
 239 0108 F4EEC77A 		vcmpe.f32	s15, s14
 240 010c F1EE10FA 		vmrs	APSR_nzcv, FPSCR
 241 0110 EBD4     		bmi	.L10
  46:user_code/nfc_usart.c **** 		GL_IMU_Flag=1; // 如果需要设置标志，可以在这里设置
 242              		.loc 1 46 14
 243 0112 4D4B     		ldr	r3, .L17+56
 244 0114 0122     		movs	r2, #1
 245 0116 1A60     		str	r2, [r3]
 246              	.L6:
  47:user_code/nfc_usart.c **** 	}
  48:user_code/nfc_usart.c **** 	if(strstr((const char*)get_data,"right") != NULL)
 247              		.loc 1 48 5
 248 0118 4C49     		ldr	r1, .L17+60
 249 011a 3D48     		ldr	r0, .L17
 250 011c FFF7FEFF 		bl	strstr
 251 0120 0346     		mov	r3, r0
 252              		.loc 1 48 4
 253 0122 002B     		cmp	r3, #0
 254 0124 71D0     		beq	.L16
  49:user_code/nfc_usart.c **** 	{
  50:user_code/nfc_usart.c **** 		left = 0;
 255              		.loc 1 50 8
 256 0126 3D4B     		ldr	r3, .L17+12
 257 0128 0022     		movs	r2, #0
 258 012a 1A70     		strb	r2, [r3]
  51:user_code/nfc_usart.c **** 		right = 1;
 259              		.loc 1 51 9
 260 012c 3C4B     		ldr	r3, .L17+16
 261 012e 0122     		movs	r2, #1
 262 0130 1A70     		strb	r2, [r3]
  52:user_code/nfc_usart.c **** 		GPS_Flash_use();
 263              		.loc 1 52 3
 264 0132 FFF7FEFF 		bl	GPS_Flash_use
  53:user_code/nfc_usart.c ****         ips200_clear();
 265              		.loc 1 53 9
 266 0136 3B48     		ldr	r0, .L17+20
 267 0138 FFF7FEFF 		bl	display_interface_clear
  54:user_code/nfc_usart.c **** 		zf_delay_ms(5000);
 268              		.loc 1 54 3
 269 013c 41F28830 		movw	r0, #5000
 270 0140 FFF7FEFF 		bl	zf_delay_ms
  55:user_code/nfc_usart.c **** 		virtual_north=gnss_get_two_points_azimuth(gnss_info.latitude,gnss_info.longitude,Target_point[0][
 271              		.loc 1 55 17
 272 0144 384B     		ldr	r3, .L17+24
 273 0146 93ED067B 		vldr.64	d7, [r3, #24]
 274 014a 374B     		ldr	r3, .L17+24
 275 014c 93ED086B 		vldr.64	d6, [r3, #32]
 276 0150 364B     		ldr	r3, .L17+28
 277 0152 93ED025B 		vldr.64	d5, [r3, #8]
 278 0156 354B     		ldr	r3, .L17+28
 279 0158 03F59863 		add	r3, r3, #1216
 280 015c 13ED024B 		vldr.64	d4, [r3, #-8]
 281 0160 B0EE443B 		vmov.f64	d3, d4
 282 0164 B0EE452B 		vmov.f64	d2, d5
 283 0168 B0EE461B 		vmov.f64	d1, d6
 284 016c B0EE470B 		vmov.f64	d0, d7
 285 0170 FFF7FEFF 		bl	gnss_get_two_points_azimuth
 286 0174 B0EE407B 		vmov.f64	d7, d0
 287 0178 F7EEC77B 		vcvt.f32.f64	s15, d7
 288              		.loc 1 55 16
 289 017c 2C4B     		ldr	r3, .L17+32
 290 017e C3ED007A 		vstr.32	s15, [r3]
  56:user_code/nfc_usart.c **** 		initial_imu_heading=current_angles.yaw;
 291              		.loc 1 56 37
 292 0182 2C4B     		ldr	r3, .L17+36
 293 0184 D3ED027A 		vldr.32	s15, [r3, #8]
 294 0188 B7EEE77A 		vcvt.f64.f32	d7, s15
 295              		.loc 1 56 22
 296 018c 2A4B     		ldr	r3, .L17+40
 297 018e 83ED007B 		vstr.64	d7, [r3]
  57:user_code/nfc_usart.c **** 		virtual_north=virtual_north-initial_imu_heading;
 298              		.loc 1 57 30
 299 0192 274B     		ldr	r3, .L17+32
 300 0194 D3ED007A 		vldr.32	s15, [r3]
 301 0198 B7EEE76A 		vcvt.f64.f32	d6, s15
 302 019c 264B     		ldr	r3, .L17+40
 303 019e 93ED007B 		vldr.64	d7, [r3]
 304 01a2 36EE477B 		vsub.f64	d7, d6, d7
 305 01a6 F7EEC77B 		vcvt.f32.f64	s15, d7
 306              		.loc 1 57 16
 307 01aa 214B     		ldr	r3, .L17+32
 308 01ac C3ED007A 		vstr.32	s15, [r3]
  58:user_code/nfc_usart.c **** 		// 标准化偏移量
  59:user_code/nfc_usart.c **** 		while (virtual_north >= 180.0) virtual_north -= 360.0;
 309              		.loc 1 59 9
 310 01b0 09E0     		b	.L12
 311              	.L13:
 312              		.loc 1 59 48 discriminator 2
 313 01b2 1F4B     		ldr	r3, .L17+32
 314 01b4 D3ED007A 		vldr.32	s15, [r3]
 315 01b8 9FED207A 		vldr.32	s14, .L17+44
 316 01bc 77EEC77A 		vsub.f32	s15, s15, s14
 317 01c0 1B4B     		ldr	r3, .L17+32
 318 01c2 C3ED007A 		vstr.32	s15, [r3]
 319              	.L12:
 320              		.loc 1 59 24 discriminator 1
 321 01c6 1A4B     		ldr	r3, .L17+32
 322 01c8 D3ED007A 		vldr.32	s15, [r3]
 323              		.loc 1 59 9 discriminator 1
 324 01cc 9FED1C7A 		vldr.32	s14, .L17+48
 325 01d0 F4EEC77A 		vcmpe.f32	s15, s14
 326 01d4 F1EE10FA 		vmrs	APSR_nzcv, FPSCR
 327 01d8 EBDA     		bge	.L13
  60:user_code/nfc_usart.c **** 		while (virtual_north <-180.0) virtual_north += 360.0;
 328              		.loc 1 60 9
 329 01da 09E0     		b	.L14
 330              	.L15:
 331              		.loc 1 60 47 discriminator 2
 332 01dc 144B     		ldr	r3, .L17+32
 333 01de D3ED007A 		vldr.32	s15, [r3]
 334 01e2 9FED167A 		vldr.32	s14, .L17+44
 335 01e6 77EE877A 		vadd.f32	s15, s15, s14
 336 01ea 114B     		ldr	r3, .L17+32
 337 01ec C3ED007A 		vstr.32	s15, [r3]
 338              	.L14:
 339              		.loc 1 60 24 discriminator 1
 340 01f0 0F4B     		ldr	r3, .L17+32
 341 01f2 D3ED007A 		vldr.32	s15, [r3]
 342              		.loc 1 60 9 discriminator 1
 343 01f6 9FED137A 		vldr.32	s14, .L17+52
 344 01fa F4EEC77A 		vcmpe.f32	s15, s14
 345 01fe F1EE10FA 		vmrs	APSR_nzcv, FPSCR
 346 0202 EBD4     		bmi	.L15
  61:user_code/nfc_usart.c **** 		GL_IMU_Flag=1; // 如果需要设置标志，可以在这里设置
 347              		.loc 1 61 14
 348 0204 104B     		ldr	r3, .L17+56
 349 0206 0122     		movs	r2, #1
 350 0208 1A60     		str	r2, [r3]
 351              	.L16:
  62:user_code/nfc_usart.c **** 	}
  63:user_code/nfc_usart.c **** }
 352              		.loc 1 63 1
 353 020a 00BF     		nop
 354 020c 08BD     		pop	{r3, pc}
 355              	.L18:
 356 020e 00BF     		.align	2
 357              	.L17:
 358 0210 00000000 		.word	get_data
 359 0214 00000000 		.word	get_data_len
 360 0218 00000000 		.word	.LC0
 361 021c 00000000 		.word	left
 362 0220 00000000 		.word	right
 363 0224 00000000 		.word	display_interface_default_obj
 364 0228 00000000 		.word	gnss_info
 365 022c 00000000 		.word	Target_point
 366 0230 00000000 		.word	virtual_north
 367 0234 00000000 		.word	current_angles
 368 0238 00000000 		.word	initial_imu_heading
 369 023c 0000B443 		.word	1135869952
 370 0240 00003443 		.word	1127481344
 371 0244 000034C3 		.word	-1020002304
 372 0248 00000000 		.word	GL_IMU_Flag
 373 024c 08000000 		.word	.LC1
 374              		.cfi_endproc
 375              	.LFE483:
 377              		.text
 378              	.Letext0:
 379              		.file 2 "c:\\stellarstudio-7.0\\sdks\\tools-1.4.0\\toolchain\\arm\\mingw64_nt\\10.3-2021.10\\arm-n
 380              		.file 3 "c:\\stellarstudio-7.0\\sdks\\tools-1.4.0\\toolchain\\arm\\mingw64_nt\\10.3-2021.10\\arm-n
 381              		.file 4 "libraries/zf_common/zf_common_typedef.h"
 382              		.file 5 "C:/StellarStudio-7.0/SDKS/StellarESDK-1.7.0/Modules/Platform/MCU/include/sr5e1/sr5e1xx.h"
 383              		.file 6 "libraries/zf_common/zf_common_fifo.h"
 384              		.file 7 "libraries/zf_driver/zf_driver_gpio.h"
 385              		.file 8 "libraries/zf_driver/zf_driver_adc.h"
 386              		.file 9 "libraries/zf_driver/zf_driver_can.h"
 387              		.file 10 "libraries/zf_driver/zf_driver_encoder.h"
 388              		.file 11 "libraries/zf_driver/zf_driver_exti.h"
 389              		.file 12 "libraries/zf_driver/zf_driver_hrtim.h"
 390              		.file 13 "libraries/zf_driver/zf_driver_pwm.h"
 391              		.file 14 "libraries/zf_driver/zf_driver_spi.h"
 392              		.file 15 "libraries/zf_driver/zf_driver_uart.h"
 393              		.file 16 "libraries/zf_device/zf_device_imu_interface.h"
 394              		.file 17 "libraries/zf_device/zf_device_wireless_interface.h"
 395              		.file 18 "libraries/zf_device/zf_device_display_interface.h"
 396              		.file 19 "libraries/zf_device/zf_device_gnss.h"
 397              		.file 20 "user_code/quaternion.h"
 398              		.file 21 "user_code/GPS.h"