   1              		.cpu cortex-m7
   2              		.arch armv7e-m
   3              		.fpu fpv5-d16
   4              		.eabi_attribute 28, 1
   5              		.eabi_attribute 20, 1
   6              		.eabi_attribute 21, 1
   7              		.eabi_attribute 23, 3
   8              		.eabi_attribute 24, 1
   9              		.eabi_attribute 25, 1
  10              		.eabi_attribute 26, 1
  11              		.eabi_attribute 30, 6
  12              		.eabi_attribute 34, 1
  13              		.eabi_attribute 18, 4
  14              		.file	"remote_control.c"
  15              		.text
  16              	.Ltext0:
  17              		.cfi_sections	.debug_frame
  18              		.section	.rodata
  19              		.align	2
  20              	.LC0:
  21 0000 72656D6F 		.ascii	"remote control init error.\015\000"
  21      74652063 
  21      6F6E7472 
  21      6F6C2069 
  21      6E697420 
  22              		.align	2
  23              	.LC1:
  24 001c 72656D6F 		.ascii	"remote control init successful.\015\000"
  24      74652063 
  24      6F6E7472 
  24      6F6C2069 
  24      6E697420 
  25              		.section	.text.dlw_remote_control_init,"ax",%progbits
  26              		.align	1
  27              		.p2align 4,,15
  28              		.global	dlw_remote_control_init
  29              		.syntax unified
  30              		.thumb
  31              		.thumb_func
  33              	dlw_remote_control_init:
  34              	.LFB482:
  35              		.file 1 "user_code/remote_control.c"
   1:user_code/remote_control.c **** /*
   2:user_code/remote_control.c ****  * remote_control.c
   3:user_code/remote_control.c ****  *
   4:user_code/remote_control.c ****  *  Created on: 2025Õ╣┤6µ£ł4µŚź
   5:user_code/remote_control.c ****  *      Author: ÕłśńÅłńÉ¬
   6:user_code/remote_control.c ****  */
   7:user_code/remote_control.c **** 
   8:user_code/remote_control.c **** #include "remote_control.h"
   9:user_code/remote_control.c **** 
  10:user_code/remote_control.c **** //-------------------------------------------------------------------------------------------------
  11:user_code/remote_control.c **** // ÕćĮµĢ░ń«Ćõ╗ŗ     ķüźµÄ¦ÕÖ©ÕłØÕ¦ŗÕī¢
  12:user_code/remote_control.c **** // Ķ┐öÕø×ÕÅéµĢ░     void
  13:user_code/remote_control.c **** // õĮ┐ńö©ńż║õŠŗ
  14:user_code/remote_control.c **** // Õżćµ│©õ┐Īµü»     ķüźµÄ¦ÕÖ©ńÜäµÄźµöČÕ╝ĢĶäÜµś»õĖ▓ÕÅŻ2ńÜäPA6
  15:user_code/remote_control.c **** //-------------------------------------------------------------------------------------------------
  16:user_code/remote_control.c **** void dlw_remote_control_init(void)
  17:user_code/remote_control.c **** {
  36              		.loc 1 17 1
  37              		.cfi_startproc
  38              		@ args = 0, pretend = 0, frame = 0
  39              		@ frame_needed = 0, uses_anonymous_args = 0
  40 0000 08B5     		push	{r3, lr}
  41              		.cfi_def_cfa_offset 8
  42              		.cfi_offset 3, -8
  43              		.cfi_offset 14, -4
  18:user_code/remote_control.c **** 		if(uart_receiver_init())
  44              		.loc 1 18 6
  45 0002 FFF7FEFF 		bl	uart_receiver_init
  46 0006 0346     		mov	r3, r0
  47              		.loc 1 18 5
  48 0008 002B     		cmp	r3, #0
  49 000a 07D0     		beq	.L2
  19:user_code/remote_control.c **** 		{
  20:user_code/remote_control.c **** 			printf("remote control init error.\r\n");
  50              		.loc 1 20 4
  51 000c 0848     		ldr	r0, .L5
  52 000e FFF7FEFF 		bl	puts
  21:user_code/remote_control.c **** 			zf_gpio_set_level(H0, GPIO_LOW);                     // õĖ▓ÕÅŻµÄźµöČµ£║ÕłØÕ¦ŗÕī¢Õż▒Ķ┤ź
  53              		.loc 1 21 4
  54 0012 0021     		movs	r1, #0
  55 0014 E020     		movs	r0, #224
  56 0016 FFF7FEFF 		bl	zf_gpio_set_level
  22:user_code/remote_control.c **** 		}
  23:user_code/remote_control.c **** 		else
  24:user_code/remote_control.c **** 		{
  25:user_code/remote_control.c **** 		    printf("remote control init successful.\r\n");
  26:user_code/remote_control.c ****             zf_gpio_set_level(H0, GPIO_HIGH);
  27:user_code/remote_control.c **** 		}
  28:user_code/remote_control.c **** 
  29:user_code/remote_control.c **** }
  57              		.loc 1 29 1
  58 001a 06E0     		b	.L4
  59              	.L2:
  25:user_code/remote_control.c ****             zf_gpio_set_level(H0, GPIO_HIGH);
  60              		.loc 1 25 7
  61 001c 0548     		ldr	r0, .L5+4
  62 001e FFF7FEFF 		bl	puts
  26:user_code/remote_control.c **** 		}
  63              		.loc 1 26 13
  64 0022 0121     		movs	r1, #1
  65 0024 E020     		movs	r0, #224
  66 0026 FFF7FEFF 		bl	zf_gpio_set_level
  67              	.L4:
  68              		.loc 1 29 1
  69 002a 00BF     		nop
  70 002c 08BD     		pop	{r3, pc}
  71              	.L6:
  72 002e 00BF     		.align	2
  73              	.L5:
  74 0030 00000000 		.word	.LC0
  75 0034 1C000000 		.word	.LC1
  76              		.cfi_endproc
  77              	.LFE482:
  79              		.section	.text.dlw_remote_control_get_data,"ax",%progbits
  80              		.align	1
  81              		.p2align 4,,15
  82              		.global	dlw_remote_control_get_data
  83              		.syntax unified
  84              		.thumb
  85              		.thumb_func
  87              	dlw_remote_control_get_data:
  88              	.LFB483:
  30:user_code/remote_control.c **** 
  31:user_code/remote_control.c **** 
  32:user_code/remote_control.c **** //-------------------------------------------------------------------------------------------------
  33:user_code/remote_control.c **** // ÕćĮµĢ░ń«Ćõ╗ŗ     ķüźµÄ¦ÕÖ©ÕŠŚÕł░µĢ░µŹ«
  34:user_code/remote_control.c **** // Ķ┐öÕø×ÕÅéµĢ░     void
  35:user_code/remote_control.c **** // õĮ┐ńö©ńż║õŠŗ
  36:user_code/remote_control.c **** // Õżćµ│©õ┐Īµü»     ķüźµÄ¦ÕÖ©ÕŠŚÕł░µĢ░µŹ«’╝łµĢ░µŹ«ÕżäńÉåÕ£©Õø×Ķ░āÕćĮµĢ░õĖŁÕ«īµłÉ’╝īĶ┐Öķćīõ╗ģÕ░åõĖ▓Õ
  37:user_code/remote_control.c **** //            ķüźµÄ¦ÕÖ©ÕŠŚÕł░ńÜäÕżäńÉåÕÉÄńÜäµĢ░µŹ«ÕŁśÕ£©uart_receiver_structń╗ōµ×äõĮōķćī
  38:user_code/remote_control.c **** //-------------------------------------------------------------------------------------------------
  39:user_code/remote_control.c **** void dlw_remote_control_get_data(void)
  40:user_code/remote_control.c **** {
  89              		.loc 1 40 1
  90              		.cfi_startproc
  91              		@ args = 0, pretend = 0, frame = 0
  92              		@ frame_needed = 0, uses_anonymous_args = 0
  93 0000 08B5     		push	{r3, lr}
  94              		.cfi_def_cfa_offset 8
  95              		.cfi_offset 3, -8
  96              		.cfi_offset 14, -4
  41:user_code/remote_control.c **** 	if(uart_receiver.finsh_flag)
  97              		.loc 1 41 18
  98 0002 0C4B     		ldr	r3, .L12
  99 0004 5B7B     		ldrb	r3, [r3, #13]	@ zero_extendqisi2
 100              		.loc 1 41 4
 101 0006 002B     		cmp	r3, #0
 102 0008 12D0     		beq	.L11
  42:user_code/remote_control.c **** 	{
  43:user_code/remote_control.c **** 		uart_receiver.finsh_flag = 0;
 103              		.loc 1 43 28
 104 000a 0A4B     		ldr	r3, .L12
 105 000c 0022     		movs	r2, #0
 106 000e 5A73     		strb	r2, [r3, #13]
  44:user_code/remote_control.c **** 
  45:user_code/remote_control.c **** 		if(1 == uart_receiver.state)                             // ķüźµÄ¦ÕÖ©Õż▒µÄ¦ńŖČµĆüÕłżµ¢Ł
 107              		.loc 1 45 24
 108 0010 084B     		ldr	r3, .L12
 109 0012 1B7B     		ldrb	r3, [r3, #12]	@ zero_extendqisi2
 110              		.loc 1 45 5
 111 0014 012B     		cmp	r3, #1
 112 0016 04D1     		bne	.L9
  46:user_code/remote_control.c **** 		{
  47:user_code/remote_control.c **** 			zf_gpio_set_level(H0, GPIO_HIGH);
 113              		.loc 1 47 4
 114 0018 0121     		movs	r1, #1
 115 001a E020     		movs	r0, #224
 116 001c FFF7FEFF 		bl	zf_gpio_set_level
 117 0020 03E0     		b	.L10
 118              	.L9:
  48:user_code/remote_control.c **** 		}
  49:user_code/remote_control.c **** 		else
  50:user_code/remote_control.c **** 		{
  51:user_code/remote_control.c **** 			zf_gpio_set_level(H0, GPIO_LOW);
 119              		.loc 1 51 4
 120 0022 0021     		movs	r1, #0
 121 0024 E020     		movs	r0, #224
 122 0026 FFF7FEFF 		bl	zf_gpio_set_level
 123              	.L10:
  52:user_code/remote_control.c **** 		}
  53:user_code/remote_control.c **** 		uart_receiver.finsh_flag = 0;                            // ÕĖ¦Õ«īµłÉµĀćÕ┐ŚÕżŹõĮŹ
 124              		.loc 1 53 28
 125 002a 024B     		ldr	r3, .L12
 126 002c 0022     		movs	r2, #0
 127 002e 5A73     		strb	r2, [r3, #13]
 128              	.L11:
  54:user_code/remote_control.c **** 	}
  55:user_code/remote_control.c **** }
 129              		.loc 1 55 1
 130 0030 00BF     		nop
 131 0032 08BD     		pop	{r3, pc}
 132              	.L13:
 133              		.align	2
 134              	.L12:
 135 0034 00000000 		.word	uart_receiver
 136              		.cfi_endproc
 137              	.LFE483:
 139              		.text
 140              	.Letext0:
 141              		.file 2 "libraries/zf_common/zf_common_typedef.h"
 142              		.file 3 "libraries/zf_driver/zf_driver_gpio.h"
 143              		.file 4 "libraries/zf_device/zf_device_uart_receiver.h"